
audio-listener.elf:     file format elf32-littlearm


Disassembly of section .text:

08000000 <vectors>:
 8000000:	20020000 	andcs	r0, r2, r0
 8000004:	080044e3 	stmdaeq	r0, {r0, r1, r5, r6, r7, sl, lr}
 8000008:	080044dd 	stmdaeq	r0, {r0, r2, r3, r4, r6, r7, sl, lr}
 800000c:	080088d1 	stmdaeq	r0, {r0, r4, r6, r7, fp, pc}
 8000010:	0800890d 	stmdaeq	r0, {r0, r2, r3, r8, fp, pc}
 8000014:	08008935 	stmdaeq	r0, {r0, r2, r4, r5, r8, fp, pc}
 8000018:	0800895d 	stmdaeq	r0, {r0, r2, r3, r4, r6, r8, fp, pc}
	...
 800002c:	080044dd 	stmdaeq	r0, {r0, r2, r3, r4, r6, r7, sl, lr}
 8000030:	080044dd 	stmdaeq	r0, {r0, r2, r3, r4, r6, r7, sl, lr}
 8000034:	00000000 	andeq	r0, r0, r0
 8000038:	080044dd 	stmdaeq	r0, {r0, r2, r3, r4, r6, r7, sl, lr}
 800003c:	080044dd 	stmdaeq	r0, {r0, r2, r3, r4, r6, r7, sl, lr}
 8000040:	080044dd 	stmdaeq	r0, {r0, r2, r3, r4, r6, r7, sl, lr}
 8000044:	080044dd 	stmdaeq	r0, {r0, r2, r3, r4, r6, r7, sl, lr}
 8000048:	080044dd 	stmdaeq	r0, {r0, r2, r3, r4, r6, r7, sl, lr}
 800004c:	080044dd 	stmdaeq	r0, {r0, r2, r3, r4, r6, r7, sl, lr}
 8000050:	00000000 	andeq	r0, r0, r0
 8000054:	080044dd 	stmdaeq	r0, {r0, r2, r3, r4, r6, r7, sl, lr}
 8000058:	080044dd 	stmdaeq	r0, {r0, r2, r3, r4, r6, r7, sl, lr}
 800005c:	080044dd 	stmdaeq	r0, {r0, r2, r3, r4, r6, r7, sl, lr}
 8000060:	080044dd 	stmdaeq	r0, {r0, r2, r3, r4, r6, r7, sl, lr}
 8000064:	080044dd 	stmdaeq	r0, {r0, r2, r3, r4, r6, r7, sl, lr}
 8000068:	080044dd 	stmdaeq	r0, {r0, r2, r3, r4, r6, r7, sl, lr}
 800006c:	080044dd 	stmdaeq	r0, {r0, r2, r3, r4, r6, r7, sl, lr}
 8000070:	080044dd 	stmdaeq	r0, {r0, r2, r3, r4, r6, r7, sl, lr}
 8000074:	080044dd 	stmdaeq	r0, {r0, r2, r3, r4, r6, r7, sl, lr}
 8000078:	080044dd 	stmdaeq	r0, {r0, r2, r3, r4, r6, r7, sl, lr}
 800007c:	080044dd 	stmdaeq	r0, {r0, r2, r3, r4, r6, r7, sl, lr}
 8000080:	080044dd 	stmdaeq	r0, {r0, r2, r3, r4, r6, r7, sl, lr}
 8000084:	080044dd 	stmdaeq	r0, {r0, r2, r3, r4, r6, r7, sl, lr}
 8000088:	080044dd 	stmdaeq	r0, {r0, r2, r3, r4, r6, r7, sl, lr}
 800008c:	080044dd 	stmdaeq	r0, {r0, r2, r3, r4, r6, r7, sl, lr}
 8000090:	080044dd 	stmdaeq	r0, {r0, r2, r3, r4, r6, r7, sl, lr}
 8000094:	080044dd 	stmdaeq	r0, {r0, r2, r3, r4, r6, r7, sl, lr}
 8000098:	080044dd 	stmdaeq	r0, {r0, r2, r3, r4, r6, r7, sl, lr}
 800009c:	080044dd 	stmdaeq	r0, {r0, r2, r3, r4, r6, r7, sl, lr}
 80000a0:	080044dd 	stmdaeq	r0, {r0, r2, r3, r4, r6, r7, sl, lr}
 80000a4:	080044dd 	stmdaeq	r0, {r0, r2, r3, r4, r6, r7, sl, lr}
 80000a8:	080044dd 	stmdaeq	r0, {r0, r2, r3, r4, r6, r7, sl, lr}
 80000ac:	080044dd 	stmdaeq	r0, {r0, r2, r3, r4, r6, r7, sl, lr}
 80000b0:	080044dd 	stmdaeq	r0, {r0, r2, r3, r4, r6, r7, sl, lr}
 80000b4:	080044dd 	stmdaeq	r0, {r0, r2, r3, r4, r6, r7, sl, lr}
 80000b8:	080044dd 	stmdaeq	r0, {r0, r2, r3, r4, r6, r7, sl, lr}
 80000bc:	080044dd 	stmdaeq	r0, {r0, r2, r3, r4, r6, r7, sl, lr}
 80000c0:	080044dd 	stmdaeq	r0, {r0, r2, r3, r4, r6, r7, sl, lr}
 80000c4:	080044dd 	stmdaeq	r0, {r0, r2, r3, r4, r6, r7, sl, lr}
 80000c8:	080044dd 	stmdaeq	r0, {r0, r2, r3, r4, r6, r7, sl, lr}
 80000cc:	080044dd 	stmdaeq	r0, {r0, r2, r3, r4, r6, r7, sl, lr}
 80000d0:	080044dd 	stmdaeq	r0, {r0, r2, r3, r4, r6, r7, sl, lr}
 80000d4:	080044dd 	stmdaeq	r0, {r0, r2, r3, r4, r6, r7, sl, lr}
 80000d8:	080044dd 	stmdaeq	r0, {r0, r2, r3, r4, r6, r7, sl, lr}
 80000dc:	080044dd 	stmdaeq	r0, {r0, r2, r3, r4, r6, r7, sl, lr}
 80000e0:	08004021 	stmdaeq	r0, {r0, r5, lr}
 80000e4:	080044dd 	stmdaeq	r0, {r0, r2, r3, r4, r6, r7, sl, lr}
 80000e8:	080044dd 	stmdaeq	r0, {r0, r2, r3, r4, r6, r7, sl, lr}
 80000ec:	080044dd 	stmdaeq	r0, {r0, r2, r3, r4, r6, r7, sl, lr}
 80000f0:	080044dd 	stmdaeq	r0, {r0, r2, r3, r4, r6, r7, sl, lr}
 80000f4:	080044dd 	stmdaeq	r0, {r0, r2, r3, r4, r6, r7, sl, lr}
 80000f8:	080044dd 	stmdaeq	r0, {r0, r2, r3, r4, r6, r7, sl, lr}
 80000fc:	080044dd 	stmdaeq	r0, {r0, r2, r3, r4, r6, r7, sl, lr}
 8000100:	080044dd 	stmdaeq	r0, {r0, r2, r3, r4, r6, r7, sl, lr}
 8000104:	080044dd 	stmdaeq	r0, {r0, r2, r3, r4, r6, r7, sl, lr}
 8000108:	080044dd 	stmdaeq	r0, {r0, r2, r3, r4, r6, r7, sl, lr}
 800010c:	080044dd 	stmdaeq	r0, {r0, r2, r3, r4, r6, r7, sl, lr}
 8000110:	080044dd 	stmdaeq	r0, {r0, r2, r3, r4, r6, r7, sl, lr}
 8000114:	080044dd 	stmdaeq	r0, {r0, r2, r3, r4, r6, r7, sl, lr}
 8000118:	080044dd 	stmdaeq	r0, {r0, r2, r3, r4, r6, r7, sl, lr}
 800011c:	080044dd 	stmdaeq	r0, {r0, r2, r3, r4, r6, r7, sl, lr}
 8000120:	080044dd 	stmdaeq	r0, {r0, r2, r3, r4, r6, r7, sl, lr}
 8000124:	080044dd 	stmdaeq	r0, {r0, r2, r3, r4, r6, r7, sl, lr}
 8000128:	080044dd 	stmdaeq	r0, {r0, r2, r3, r4, r6, r7, sl, lr}
 800012c:	080044dd 	stmdaeq	r0, {r0, r2, r3, r4, r6, r7, sl, lr}
 8000130:	080044dd 	stmdaeq	r0, {r0, r2, r3, r4, r6, r7, sl, lr}
	...
 800013c:	080044dd 	stmdaeq	r0, {r0, r2, r3, r4, r6, r7, sl, lr}
 8000140:	080044dd 	stmdaeq	r0, {r0, r2, r3, r4, r6, r7, sl, lr}
 8000144:	080044dd 	stmdaeq	r0, {r0, r2, r3, r4, r6, r7, sl, lr}
 8000148:	080044dd 	stmdaeq	r0, {r0, r2, r3, r4, r6, r7, sl, lr}
 800014c:	080044dd 	stmdaeq	r0, {r0, r2, r3, r4, r6, r7, sl, lr}
 8000150:	080044dd 	stmdaeq	r0, {r0, r2, r3, r4, r6, r7, sl, lr}
 8000154:	080044dd 	stmdaeq	r0, {r0, r2, r3, r4, r6, r7, sl, lr}
 8000158:	080044dd 	stmdaeq	r0, {r0, r2, r3, r4, r6, r7, sl, lr}
 800015c:	080044dd 	stmdaeq	r0, {r0, r2, r3, r4, r6, r7, sl, lr}
 8000160:	080044dd 	stmdaeq	r0, {r0, r2, r3, r4, r6, r7, sl, lr}
 8000164:	080044dd 	stmdaeq	r0, {r0, r2, r3, r4, r6, r7, sl, lr}
 8000168:	080044dd 	stmdaeq	r0, {r0, r2, r3, r4, r6, r7, sl, lr}
 800016c:	080044dd 	stmdaeq	r0, {r0, r2, r3, r4, r6, r7, sl, lr}
 8000170:	080044dd 	stmdaeq	r0, {r0, r2, r3, r4, r6, r7, sl, lr}
 8000174:	080044dd 	stmdaeq	r0, {r0, r2, r3, r4, r6, r7, sl, lr}
 8000178:	080044dd 	stmdaeq	r0, {r0, r2, r3, r4, r6, r7, sl, lr}
	...
 8000184:	080044dd 	stmdaeq	r0, {r0, r2, r3, r4, r6, r7, sl, lr}
	...
 8000190:	080044dd 	stmdaeq	r0, {r0, r2, r3, r4, r6, r7, sl, lr}
	...
 800019c:	080044dd 	stmdaeq	r0, {r0, r2, r3, r4, r6, r7, sl, lr}
	...
 80001ac:	080044dd 	stmdaeq	r0, {r0, r2, r3, r4, r6, r7, sl, lr}
 80001b0:	080044dd 	stmdaeq	r0, {r0, r2, r3, r4, r6, r7, sl, lr}
 80001b4:	080044dd 	stmdaeq	r0, {r0, r2, r3, r4, r6, r7, sl, lr}
 80001b8:	080044dd 	stmdaeq	r0, {r0, r2, r3, r4, r6, r7, sl, lr}
 80001bc:	080044dd 	stmdaeq	r0, {r0, r2, r3, r4, r6, r7, sl, lr}
 80001c0:	080044dd 	stmdaeq	r0, {r0, r2, r3, r4, r6, r7, sl, lr}

080001c4 <__do_global_dtors_aux>:
 80001c4:	b510      	push	{r4, lr}
 80001c6:	4c05      	ldr	r4, [pc, #20]	; (80001dc <__do_global_dtors_aux+0x18>)
 80001c8:	7823      	ldrb	r3, [r4, #0]
 80001ca:	b933      	cbnz	r3, 80001da <__do_global_dtors_aux+0x16>
 80001cc:	4b04      	ldr	r3, [pc, #16]	; (80001e0 <__do_global_dtors_aux+0x1c>)
 80001ce:	b113      	cbz	r3, 80001d6 <__do_global_dtors_aux+0x12>
 80001d0:	4804      	ldr	r0, [pc, #16]	; (80001e4 <__do_global_dtors_aux+0x20>)
 80001d2:	f3af 8000 	nop.w
 80001d6:	2301      	movs	r3, #1
 80001d8:	7023      	strb	r3, [r4, #0]
 80001da:	bd10      	pop	{r4, pc}
 80001dc:	2000020c 	andcs	r0, r0, ip, lsl #4
 80001e0:	00000000 	andeq	r0, r0, r0
 80001e4:	0800a500 	stmdaeq	r0, {r8, sl, sp, pc}

080001e8 <frame_dummy>:
 80001e8:	b508      	push	{r3, lr}
 80001ea:	4b03      	ldr	r3, [pc, #12]	; (80001f8 <frame_dummy+0x10>)
 80001ec:	b11b      	cbz	r3, 80001f6 <frame_dummy+0xe>
 80001ee:	4903      	ldr	r1, [pc, #12]	; (80001fc <frame_dummy+0x14>)
 80001f0:	4803      	ldr	r0, [pc, #12]	; (8000200 <frame_dummy+0x18>)
 80001f2:	f3af 8000 	nop.w
 80001f6:	bd08      	pop	{r3, pc}
 80001f8:	00000000 	andeq	r0, r0, r0
 80001fc:	20000210 	andcs	r0, r0, r0, lsl r2
 8000200:	0800a500 	stmdaeq	r0, {r8, sl, sp, pc}

08000204 <_stack_init>:
 8000204:	f5a3 3a80 	sub.w	sl, r3, #65536	; 0x10000
 8000208:	4770      	bx	lr
 800020a:	bf00      	nop

0800020c <_mainCRTStartup>:
 800020c:	4b17      	ldr	r3, [pc, #92]	; (800026c <_mainCRTStartup+0x60>)
 800020e:	2b00      	cmp	r3, #0
 8000210:	bf08      	it	eq
 8000212:	4b13      	ldreq	r3, [pc, #76]	; (8000260 <_mainCRTStartup+0x54>)
 8000214:	469d      	mov	sp, r3
 8000216:	f7ff fff5 	bl	8000204 <_stack_init>
 800021a:	2100      	movs	r1, #0
 800021c:	468b      	mov	fp, r1
 800021e:	460f      	mov	r7, r1
 8000220:	4813      	ldr	r0, [pc, #76]	; (8000270 <_mainCRTStartup+0x64>)
 8000222:	4a14      	ldr	r2, [pc, #80]	; (8000274 <_mainCRTStartup+0x68>)
 8000224:	1a12      	subs	r2, r2, r0
 8000226:	f008 fddf 	bl	8008de8 <memset>
 800022a:	4b0e      	ldr	r3, [pc, #56]	; (8000264 <_mainCRTStartup+0x58>)
 800022c:	2b00      	cmp	r3, #0
 800022e:	d000      	beq.n	8000232 <_mainCRTStartup+0x26>
 8000230:	4798      	blx	r3
 8000232:	4b0d      	ldr	r3, [pc, #52]	; (8000268 <_mainCRTStartup+0x5c>)
 8000234:	2b00      	cmp	r3, #0
 8000236:	d000      	beq.n	800023a <_mainCRTStartup+0x2e>
 8000238:	4798      	blx	r3
 800023a:	2000      	movs	r0, #0
 800023c:	2100      	movs	r1, #0
 800023e:	0004      	movs	r4, r0
 8000240:	000d      	movs	r5, r1
 8000242:	480d      	ldr	r0, [pc, #52]	; (8000278 <_mainCRTStartup+0x6c>)
 8000244:	2800      	cmp	r0, #0
 8000246:	d002      	beq.n	800024e <_mainCRTStartup+0x42>
 8000248:	480c      	ldr	r0, [pc, #48]	; (800027c <_mainCRTStartup+0x70>)
 800024a:	f3af 8000 	nop.w
 800024e:	f008 fd89 	bl	8008d64 <__libc_init_array>
 8000252:	0020      	movs	r0, r4
 8000254:	0029      	movs	r1, r5
 8000256:	f003 fecd 	bl	8003ff4 <main>
 800025a:	f008 fd6f 	bl	8008d3c <exit>
 800025e:	bf00      	nop
 8000260:	00080000 	andeq	r0, r8, r0
	...
 8000270:	2000020c 	andcs	r0, r0, ip, lsl #4
 8000274:	20002bb0 			; <UNDEFINED> instruction: 0x20002bb0
	...

08000280 <prvCreateTask>:
 8000280:	b580      	push	{r7, lr}
 8000282:	b08a      	sub	sp, #40	; 0x28
 8000284:	af04      	add	r7, sp, #16
 8000286:	60f8      	str	r0, [r7, #12]
 8000288:	60b9      	str	r1, [r7, #8]
 800028a:	607a      	str	r2, [r7, #4]
 800028c:	603b      	str	r3, [r7, #0]
 800028e:	687b      	ldr	r3, [r7, #4]
 8000290:	009b      	lsls	r3, r3, #2
 8000292:	4618      	mov	r0, r3
 8000294:	f003 facc 	bl	8003830 <pvPortMalloc>
 8000298:	6138      	str	r0, [r7, #16]
 800029a:	693b      	ldr	r3, [r7, #16]
 800029c:	2b00      	cmp	r3, #0
 800029e:	d013      	beq.n	80002c8 <prvCreateTask+0x48>
 80002a0:	204c      	movs	r0, #76	; 0x4c
 80002a2:	f003 fac5 	bl	8003830 <pvPortMalloc>
 80002a6:	6178      	str	r0, [r7, #20]
 80002a8:	697b      	ldr	r3, [r7, #20]
 80002aa:	2b00      	cmp	r3, #0
 80002ac:	d008      	beq.n	80002c0 <prvCreateTask+0x40>
 80002ae:	224c      	movs	r2, #76	; 0x4c
 80002b0:	2100      	movs	r1, #0
 80002b2:	6978      	ldr	r0, [r7, #20]
 80002b4:	f008 fd98 	bl	8008de8 <memset>
 80002b8:	697b      	ldr	r3, [r7, #20]
 80002ba:	693a      	ldr	r2, [r7, #16]
 80002bc:	631a      	str	r2, [r3, #48]	; 0x30
 80002be:	e005      	b.n	80002cc <prvCreateTask+0x4c>
 80002c0:	6938      	ldr	r0, [r7, #16]
 80002c2:	f003 fb67 	bl	8003994 <vPortFree>
 80002c6:	e001      	b.n	80002cc <prvCreateTask+0x4c>
 80002c8:	2300      	movs	r3, #0
 80002ca:	617b      	str	r3, [r7, #20]
 80002cc:	697b      	ldr	r3, [r7, #20]
 80002ce:	2b00      	cmp	r3, #0
 80002d0:	d00d      	beq.n	80002ee <prvCreateTask+0x6e>
 80002d2:	2300      	movs	r3, #0
 80002d4:	9303      	str	r3, [sp, #12]
 80002d6:	697b      	ldr	r3, [r7, #20]
 80002d8:	9302      	str	r3, [sp, #8]
 80002da:	6a7b      	ldr	r3, [r7, #36]	; 0x24
 80002dc:	9301      	str	r3, [sp, #4]
 80002de:	6a3b      	ldr	r3, [r7, #32]
 80002e0:	9300      	str	r3, [sp, #0]
 80002e2:	683b      	ldr	r3, [r7, #0]
 80002e4:	687a      	ldr	r2, [r7, #4]
 80002e6:	68b9      	ldr	r1, [r7, #8]
 80002e8:	68f8      	ldr	r0, [r7, #12]
 80002ea:	f000 f828 	bl	800033e <prvInitialiseNewTask>
 80002ee:	697b      	ldr	r3, [r7, #20]
 80002f0:	4618      	mov	r0, r3
 80002f2:	3718      	adds	r7, #24
 80002f4:	46bd      	mov	sp, r7
 80002f6:	bd80      	pop	{r7, pc}

080002f8 <xTaskCreate>:
 80002f8:	b580      	push	{r7, lr}
 80002fa:	b088      	sub	sp, #32
 80002fc:	af02      	add	r7, sp, #8
 80002fe:	60f8      	str	r0, [r7, #12]
 8000300:	60b9      	str	r1, [r7, #8]
 8000302:	607a      	str	r2, [r7, #4]
 8000304:	603b      	str	r3, [r7, #0]
 8000306:	6a7b      	ldr	r3, [r7, #36]	; 0x24
 8000308:	9301      	str	r3, [sp, #4]
 800030a:	6a3b      	ldr	r3, [r7, #32]
 800030c:	9300      	str	r3, [sp, #0]
 800030e:	683b      	ldr	r3, [r7, #0]
 8000310:	687a      	ldr	r2, [r7, #4]
 8000312:	68b9      	ldr	r1, [r7, #8]
 8000314:	68f8      	ldr	r0, [r7, #12]
 8000316:	f7ff ffb3 	bl	8000280 <prvCreateTask>
 800031a:	6138      	str	r0, [r7, #16]
 800031c:	693b      	ldr	r3, [r7, #16]
 800031e:	2b00      	cmp	r3, #0
 8000320:	d005      	beq.n	800032e <xTaskCreate+0x36>
 8000322:	6938      	ldr	r0, [r7, #16]
 8000324:	f000 f878 	bl	8000418 <prvAddNewTaskToReadyList>
 8000328:	2301      	movs	r3, #1
 800032a:	617b      	str	r3, [r7, #20]
 800032c:	e002      	b.n	8000334 <xTaskCreate+0x3c>
 800032e:	f04f 33ff 	mov.w	r3, #4294967295	; 0xffffffff
 8000332:	617b      	str	r3, [r7, #20]
 8000334:	697b      	ldr	r3, [r7, #20]
 8000336:	4618      	mov	r0, r3
 8000338:	3718      	adds	r7, #24
 800033a:	46bd      	mov	sp, r7
 800033c:	bd80      	pop	{r7, pc}

0800033e <prvInitialiseNewTask>:
 800033e:	b580      	push	{r7, lr}
 8000340:	b086      	sub	sp, #24
 8000342:	af00      	add	r7, sp, #0
 8000344:	60f8      	str	r0, [r7, #12]
 8000346:	60b9      	str	r1, [r7, #8]
 8000348:	607a      	str	r2, [r7, #4]
 800034a:	603b      	str	r3, [r7, #0]
 800034c:	6abb      	ldr	r3, [r7, #40]	; 0x28
 800034e:	6b18      	ldr	r0, [r3, #48]	; 0x30
 8000350:	687b      	ldr	r3, [r7, #4]
 8000352:	009b      	lsls	r3, r3, #2
 8000354:	461a      	mov	r2, r3
 8000356:	21a5      	movs	r1, #165	; 0xa5
 8000358:	f008 fd46 	bl	8008de8 <memset>
 800035c:	6abb      	ldr	r3, [r7, #40]	; 0x28
 800035e:	6b1a      	ldr	r2, [r3, #48]	; 0x30
 8000360:	687b      	ldr	r3, [r7, #4]
 8000362:	f103 4380 	add.w	r3, r3, #1073741824	; 0x40000000
 8000366:	3b01      	subs	r3, #1
 8000368:	009b      	lsls	r3, r3, #2
 800036a:	4413      	add	r3, r2
 800036c:	613b      	str	r3, [r7, #16]
 800036e:	693b      	ldr	r3, [r7, #16]
 8000370:	f023 0307 	bic.w	r3, r3, #7
 8000374:	613b      	str	r3, [r7, #16]
 8000376:	68bb      	ldr	r3, [r7, #8]
 8000378:	2b00      	cmp	r3, #0
 800037a:	d01e      	beq.n	80003ba <prvInitialiseNewTask+0x7c>
 800037c:	2300      	movs	r3, #0
 800037e:	617b      	str	r3, [r7, #20]
 8000380:	e012      	b.n	80003a8 <prvInitialiseNewTask+0x6a>
 8000382:	68ba      	ldr	r2, [r7, #8]
 8000384:	697b      	ldr	r3, [r7, #20]
 8000386:	4413      	add	r3, r2
 8000388:	7819      	ldrb	r1, [r3, #0]
 800038a:	6aba      	ldr	r2, [r7, #40]	; 0x28
 800038c:	697b      	ldr	r3, [r7, #20]
 800038e:	4413      	add	r3, r2
 8000390:	3334      	adds	r3, #52	; 0x34
 8000392:	460a      	mov	r2, r1
 8000394:	701a      	strb	r2, [r3, #0]
 8000396:	68ba      	ldr	r2, [r7, #8]
 8000398:	697b      	ldr	r3, [r7, #20]
 800039a:	4413      	add	r3, r2
 800039c:	781b      	ldrb	r3, [r3, #0]
 800039e:	2b00      	cmp	r3, #0
 80003a0:	d006      	beq.n	80003b0 <prvInitialiseNewTask+0x72>
 80003a2:	697b      	ldr	r3, [r7, #20]
 80003a4:	3301      	adds	r3, #1
 80003a6:	617b      	str	r3, [r7, #20]
 80003a8:	697b      	ldr	r3, [r7, #20]
 80003aa:	2b0f      	cmp	r3, #15
 80003ac:	d9e9      	bls.n	8000382 <prvInitialiseNewTask+0x44>
 80003ae:	e000      	b.n	80003b2 <prvInitialiseNewTask+0x74>
 80003b0:	bf00      	nop
 80003b2:	6abb      	ldr	r3, [r7, #40]	; 0x28
 80003b4:	2200      	movs	r2, #0
 80003b6:	f883 2043 	strb.w	r2, [r3, #67]	; 0x43
 80003ba:	6a3b      	ldr	r3, [r7, #32]
 80003bc:	2b09      	cmp	r3, #9
 80003be:	d901      	bls.n	80003c4 <prvInitialiseNewTask+0x86>
 80003c0:	2309      	movs	r3, #9
 80003c2:	623b      	str	r3, [r7, #32]
 80003c4:	6abb      	ldr	r3, [r7, #40]	; 0x28
 80003c6:	6a3a      	ldr	r2, [r7, #32]
 80003c8:	62da      	str	r2, [r3, #44]	; 0x2c
 80003ca:	6abb      	ldr	r3, [r7, #40]	; 0x28
 80003cc:	3304      	adds	r3, #4
 80003ce:	4618      	mov	r0, r3
 80003d0:	f002 fa74 	bl	80028bc <vListInitialiseItem>
 80003d4:	6abb      	ldr	r3, [r7, #40]	; 0x28
 80003d6:	3318      	adds	r3, #24
 80003d8:	4618      	mov	r0, r3
 80003da:	f002 fa6f 	bl	80028bc <vListInitialiseItem>
 80003de:	6abb      	ldr	r3, [r7, #40]	; 0x28
 80003e0:	6aba      	ldr	r2, [r7, #40]	; 0x28
 80003e2:	611a      	str	r2, [r3, #16]
 80003e4:	6a3b      	ldr	r3, [r7, #32]
 80003e6:	f1c3 020a 	rsb	r2, r3, #10
 80003ea:	6abb      	ldr	r3, [r7, #40]	; 0x28
 80003ec:	619a      	str	r2, [r3, #24]
 80003ee:	6abb      	ldr	r3, [r7, #40]	; 0x28
 80003f0:	6aba      	ldr	r2, [r7, #40]	; 0x28
 80003f2:	625a      	str	r2, [r3, #36]	; 0x24
 80003f4:	683a      	ldr	r2, [r7, #0]
 80003f6:	68f9      	ldr	r1, [r7, #12]
 80003f8:	6938      	ldr	r0, [r7, #16]
 80003fa:	f003 fc9b 	bl	8003d34 <pxPortInitialiseStack>
 80003fe:	4602      	mov	r2, r0
 8000400:	6abb      	ldr	r3, [r7, #40]	; 0x28
 8000402:	601a      	str	r2, [r3, #0]
 8000404:	6a7b      	ldr	r3, [r7, #36]	; 0x24
 8000406:	2b00      	cmp	r3, #0
 8000408:	d002      	beq.n	8000410 <prvInitialiseNewTask+0xd2>
 800040a:	6a7b      	ldr	r3, [r7, #36]	; 0x24
 800040c:	6aba      	ldr	r2, [r7, #40]	; 0x28
 800040e:	601a      	str	r2, [r3, #0]
 8000410:	bf00      	nop
 8000412:	3718      	adds	r7, #24
 8000414:	46bd      	mov	sp, r7
 8000416:	bd80      	pop	{r7, pc}

08000418 <prvAddNewTaskToReadyList>:
 8000418:	b580      	push	{r7, lr}
 800041a:	b084      	sub	sp, #16
 800041c:	af00      	add	r7, sp, #0
 800041e:	6078      	str	r0, [r7, #4]
 8000420:	f003 fd39 	bl	8003e96 <vPortEnterCritical>
 8000424:	4b3f      	ldr	r3, [pc, #252]	; (8000524 <prvAddNewTaskToReadyList+0x10c>)
 8000426:	681b      	ldr	r3, [r3, #0]
 8000428:	3301      	adds	r3, #1
 800042a:	4a3e      	ldr	r2, [pc, #248]	; (8000524 <prvAddNewTaskToReadyList+0x10c>)
 800042c:	6013      	str	r3, [r2, #0]
 800042e:	4b3e      	ldr	r3, [pc, #248]	; (8000528 <prvAddNewTaskToReadyList+0x110>)
 8000430:	681b      	ldr	r3, [r3, #0]
 8000432:	2b00      	cmp	r3, #0
 8000434:	d109      	bne.n	800044a <prvAddNewTaskToReadyList+0x32>
 8000436:	4a3c      	ldr	r2, [pc, #240]	; (8000528 <prvAddNewTaskToReadyList+0x110>)
 8000438:	687b      	ldr	r3, [r7, #4]
 800043a:	6013      	str	r3, [r2, #0]
 800043c:	4b39      	ldr	r3, [pc, #228]	; (8000524 <prvAddNewTaskToReadyList+0x10c>)
 800043e:	681b      	ldr	r3, [r3, #0]
 8000440:	2b01      	cmp	r3, #1
 8000442:	d110      	bne.n	8000466 <prvAddNewTaskToReadyList+0x4e>
 8000444:	f000 fe4c 	bl	80010e0 <prvInitialiseTaskLists>
 8000448:	e00d      	b.n	8000466 <prvAddNewTaskToReadyList+0x4e>
 800044a:	4b38      	ldr	r3, [pc, #224]	; (800052c <prvAddNewTaskToReadyList+0x114>)
 800044c:	681b      	ldr	r3, [r3, #0]
 800044e:	2b00      	cmp	r3, #0
 8000450:	d109      	bne.n	8000466 <prvAddNewTaskToReadyList+0x4e>
 8000452:	4b35      	ldr	r3, [pc, #212]	; (8000528 <prvAddNewTaskToReadyList+0x110>)
 8000454:	681b      	ldr	r3, [r3, #0]
 8000456:	6ada      	ldr	r2, [r3, #44]	; 0x2c
 8000458:	687b      	ldr	r3, [r7, #4]
 800045a:	6adb      	ldr	r3, [r3, #44]	; 0x2c
 800045c:	429a      	cmp	r2, r3
 800045e:	d802      	bhi.n	8000466 <prvAddNewTaskToReadyList+0x4e>
 8000460:	4a31      	ldr	r2, [pc, #196]	; (8000528 <prvAddNewTaskToReadyList+0x110>)
 8000462:	687b      	ldr	r3, [r7, #4]
 8000464:	6013      	str	r3, [r2, #0]
 8000466:	4b32      	ldr	r3, [pc, #200]	; (8000530 <prvAddNewTaskToReadyList+0x118>)
 8000468:	681b      	ldr	r3, [r3, #0]
 800046a:	3301      	adds	r3, #1
 800046c:	4a30      	ldr	r2, [pc, #192]	; (8000530 <prvAddNewTaskToReadyList+0x118>)
 800046e:	6013      	str	r3, [r2, #0]
 8000470:	687b      	ldr	r3, [r7, #4]
 8000472:	6adb      	ldr	r3, [r3, #44]	; 0x2c
 8000474:	2201      	movs	r2, #1
 8000476:	409a      	lsls	r2, r3
 8000478:	4b2e      	ldr	r3, [pc, #184]	; (8000534 <prvAddNewTaskToReadyList+0x11c>)
 800047a:	681b      	ldr	r3, [r3, #0]
 800047c:	4313      	orrs	r3, r2
 800047e:	4a2d      	ldr	r2, [pc, #180]	; (8000534 <prvAddNewTaskToReadyList+0x11c>)
 8000480:	6013      	str	r3, [r2, #0]
 8000482:	687b      	ldr	r3, [r7, #4]
 8000484:	6ada      	ldr	r2, [r3, #44]	; 0x2c
 8000486:	492c      	ldr	r1, [pc, #176]	; (8000538 <prvAddNewTaskToReadyList+0x120>)
 8000488:	4613      	mov	r3, r2
 800048a:	009b      	lsls	r3, r3, #2
 800048c:	4413      	add	r3, r2
 800048e:	009b      	lsls	r3, r3, #2
 8000490:	440b      	add	r3, r1
 8000492:	3304      	adds	r3, #4
 8000494:	681b      	ldr	r3, [r3, #0]
 8000496:	60fb      	str	r3, [r7, #12]
 8000498:	687b      	ldr	r3, [r7, #4]
 800049a:	68fa      	ldr	r2, [r7, #12]
 800049c:	609a      	str	r2, [r3, #8]
 800049e:	68fb      	ldr	r3, [r7, #12]
 80004a0:	689a      	ldr	r2, [r3, #8]
 80004a2:	687b      	ldr	r3, [r7, #4]
 80004a4:	60da      	str	r2, [r3, #12]
 80004a6:	68fb      	ldr	r3, [r7, #12]
 80004a8:	689b      	ldr	r3, [r3, #8]
 80004aa:	687a      	ldr	r2, [r7, #4]
 80004ac:	3204      	adds	r2, #4
 80004ae:	605a      	str	r2, [r3, #4]
 80004b0:	687b      	ldr	r3, [r7, #4]
 80004b2:	1d1a      	adds	r2, r3, #4
 80004b4:	68fb      	ldr	r3, [r7, #12]
 80004b6:	609a      	str	r2, [r3, #8]
 80004b8:	687b      	ldr	r3, [r7, #4]
 80004ba:	6ada      	ldr	r2, [r3, #44]	; 0x2c
 80004bc:	4613      	mov	r3, r2
 80004be:	009b      	lsls	r3, r3, #2
 80004c0:	4413      	add	r3, r2
 80004c2:	009b      	lsls	r3, r3, #2
 80004c4:	4a1c      	ldr	r2, [pc, #112]	; (8000538 <prvAddNewTaskToReadyList+0x120>)
 80004c6:	441a      	add	r2, r3
 80004c8:	687b      	ldr	r3, [r7, #4]
 80004ca:	615a      	str	r2, [r3, #20]
 80004cc:	687b      	ldr	r3, [r7, #4]
 80004ce:	6ada      	ldr	r2, [r3, #44]	; 0x2c
 80004d0:	4919      	ldr	r1, [pc, #100]	; (8000538 <prvAddNewTaskToReadyList+0x120>)
 80004d2:	4613      	mov	r3, r2
 80004d4:	009b      	lsls	r3, r3, #2
 80004d6:	4413      	add	r3, r2
 80004d8:	009b      	lsls	r3, r3, #2
 80004da:	440b      	add	r3, r1
 80004dc:	681b      	ldr	r3, [r3, #0]
 80004de:	687a      	ldr	r2, [r7, #4]
 80004e0:	6ad2      	ldr	r2, [r2, #44]	; 0x2c
 80004e2:	1c59      	adds	r1, r3, #1
 80004e4:	4814      	ldr	r0, [pc, #80]	; (8000538 <prvAddNewTaskToReadyList+0x120>)
 80004e6:	4613      	mov	r3, r2
 80004e8:	009b      	lsls	r3, r3, #2
 80004ea:	4413      	add	r3, r2
 80004ec:	009b      	lsls	r3, r3, #2
 80004ee:	4403      	add	r3, r0
 80004f0:	6019      	str	r1, [r3, #0]
 80004f2:	f003 fceb 	bl	8003ecc <vPortExitCritical>
 80004f6:	4b0d      	ldr	r3, [pc, #52]	; (800052c <prvAddNewTaskToReadyList+0x114>)
 80004f8:	681b      	ldr	r3, [r3, #0]
 80004fa:	2b00      	cmp	r3, #0
 80004fc:	d00e      	beq.n	800051c <prvAddNewTaskToReadyList+0x104>
 80004fe:	4b0a      	ldr	r3, [pc, #40]	; (8000528 <prvAddNewTaskToReadyList+0x110>)
 8000500:	681b      	ldr	r3, [r3, #0]
 8000502:	6ada      	ldr	r2, [r3, #44]	; 0x2c
 8000504:	687b      	ldr	r3, [r7, #4]
 8000506:	6adb      	ldr	r3, [r3, #44]	; 0x2c
 8000508:	429a      	cmp	r2, r3
 800050a:	d207      	bcs.n	800051c <prvAddNewTaskToReadyList+0x104>
 800050c:	4b0b      	ldr	r3, [pc, #44]	; (800053c <prvAddNewTaskToReadyList+0x124>)
 800050e:	f04f 5280 	mov.w	r2, #268435456	; 0x10000000
 8000512:	601a      	str	r2, [r3, #0]
 8000514:	f3bf 8f4f 	dsb	sy
 8000518:	f3bf 8f6f 	isb	sy
 800051c:	bf00      	nop
 800051e:	3710      	adds	r7, #16
 8000520:	46bd      	mov	sp, r7
 8000522:	bd80      	pop	{r7, pc}
 8000524:	20000338 	andcs	r0, r0, r8, lsr r3
 8000528:	20000228 	andcs	r0, r0, r8, lsr #4
 800052c:	20000344 	andcs	r0, r0, r4, asr #6
 8000530:	20000354 	andcs	r0, r0, r4, asr r3
 8000534:	20000340 	andcs	r0, r0, r0, asr #6
 8000538:	2000022c 	andcs	r0, r0, ip, lsr #4
 800053c:	e000ed04 	and	lr, r0, r4, lsl #26

08000540 <prvCreateIdleTasks>:
 8000540:	b580      	push	{r7, lr}
 8000542:	b08a      	sub	sp, #40	; 0x28
 8000544:	af02      	add	r7, sp, #8
 8000546:	2301      	movs	r3, #1
 8000548:	61fb      	str	r3, [r7, #28]
 800054a:	2300      	movs	r3, #0
 800054c:	603b      	str	r3, [r7, #0]
 800054e:	1d3b      	adds	r3, r7, #4
 8000550:	2200      	movs	r2, #0
 8000552:	601a      	str	r2, [r3, #0]
 8000554:	605a      	str	r2, [r3, #4]
 8000556:	609a      	str	r2, [r3, #8]
 8000558:	2300      	movs	r3, #0
 800055a:	613b      	str	r3, [r7, #16]
 800055c:	2300      	movs	r3, #0
 800055e:	617b      	str	r3, [r7, #20]
 8000560:	e011      	b.n	8000586 <prvCreateIdleTasks+0x46>
 8000562:	4a1f      	ldr	r2, [pc, #124]	; (80005e0 <prvCreateIdleTasks+0xa0>)
 8000564:	697b      	ldr	r3, [r7, #20]
 8000566:	4413      	add	r3, r2
 8000568:	7819      	ldrb	r1, [r3, #0]
 800056a:	463a      	mov	r2, r7
 800056c:	697b      	ldr	r3, [r7, #20]
 800056e:	4413      	add	r3, r2
 8000570:	460a      	mov	r2, r1
 8000572:	701a      	strb	r2, [r3, #0]
 8000574:	463a      	mov	r2, r7
 8000576:	697b      	ldr	r3, [r7, #20]
 8000578:	4413      	add	r3, r2
 800057a:	781b      	ldrb	r3, [r3, #0]
 800057c:	2b00      	cmp	r3, #0
 800057e:	d006      	beq.n	800058e <prvCreateIdleTasks+0x4e>
 8000580:	697b      	ldr	r3, [r7, #20]
 8000582:	3301      	adds	r3, #1
 8000584:	617b      	str	r3, [r7, #20]
 8000586:	697b      	ldr	r3, [r7, #20]
 8000588:	2b0e      	cmp	r3, #14
 800058a:	d9ea      	bls.n	8000562 <prvCreateIdleTasks+0x22>
 800058c:	e000      	b.n	8000590 <prvCreateIdleTasks+0x50>
 800058e:	bf00      	nop
 8000590:	463a      	mov	r2, r7
 8000592:	697b      	ldr	r3, [r7, #20]
 8000594:	4413      	add	r3, r2
 8000596:	2200      	movs	r2, #0
 8000598:	701a      	strb	r2, [r3, #0]
 800059a:	2300      	movs	r3, #0
 800059c:	61bb      	str	r3, [r7, #24]
 800059e:	e015      	b.n	80005cc <prvCreateIdleTasks+0x8c>
 80005a0:	4b10      	ldr	r3, [pc, #64]	; (80005e4 <prvCreateIdleTasks+0xa4>)
 80005a2:	613b      	str	r3, [r7, #16]
 80005a4:	69bb      	ldr	r3, [r7, #24]
 80005a6:	009b      	lsls	r3, r3, #2
 80005a8:	4a0f      	ldr	r2, [pc, #60]	; (80005e8 <prvCreateIdleTasks+0xa8>)
 80005aa:	4413      	add	r3, r2
 80005ac:	4639      	mov	r1, r7
 80005ae:	9301      	str	r3, [sp, #4]
 80005b0:	2300      	movs	r3, #0
 80005b2:	9300      	str	r3, [sp, #0]
 80005b4:	2300      	movs	r3, #0
 80005b6:	2280      	movs	r2, #128	; 0x80
 80005b8:	6938      	ldr	r0, [r7, #16]
 80005ba:	f7ff fe9d 	bl	80002f8 <xTaskCreate>
 80005be:	61f8      	str	r0, [r7, #28]
 80005c0:	69fb      	ldr	r3, [r7, #28]
 80005c2:	2b01      	cmp	r3, #1
 80005c4:	d106      	bne.n	80005d4 <prvCreateIdleTasks+0x94>
 80005c6:	69bb      	ldr	r3, [r7, #24]
 80005c8:	3301      	adds	r3, #1
 80005ca:	61bb      	str	r3, [r7, #24]
 80005cc:	69bb      	ldr	r3, [r7, #24]
 80005ce:	2b00      	cmp	r3, #0
 80005d0:	dde6      	ble.n	80005a0 <prvCreateIdleTasks+0x60>
 80005d2:	e000      	b.n	80005d6 <prvCreateIdleTasks+0x96>
 80005d4:	bf00      	nop
 80005d6:	69fb      	ldr	r3, [r7, #28]
 80005d8:	4618      	mov	r0, r3
 80005da:	3720      	adds	r7, #32
 80005dc:	46bd      	mov	sp, r7
 80005de:	bd80      	pop	{r7, pc}
 80005e0:	0800a2f4 	stmdaeq	r0, {r2, r4, r5, r6, r7, r9, sp, pc}
 80005e4:	080010b1 	stmdaeq	r0, {r0, r4, r5, r7, ip}
 80005e8:	2000035c 	andcs	r0, r0, ip, asr r3

080005ec <vTaskStartScheduler>:
 80005ec:	b580      	push	{r7, lr}
 80005ee:	b082      	sub	sp, #8
 80005f0:	af00      	add	r7, sp, #0
 80005f2:	f7ff ffa5 	bl	8000540 <prvCreateIdleTasks>
 80005f6:	6078      	str	r0, [r7, #4]
 80005f8:	687b      	ldr	r3, [r7, #4]
 80005fa:	2b01      	cmp	r3, #1
 80005fc:	d115      	bne.n	800062a <vTaskStartScheduler+0x3e>
 80005fe:	f04f 0350 	mov.w	r3, #80	; 0x50
 8000602:	f383 8811 	msr	BASEPRI, r3
 8000606:	f3bf 8f6f 	isb	sy
 800060a:	f3bf 8f4f 	dsb	sy
 800060e:	603b      	str	r3, [r7, #0]
 8000610:	bf00      	nop
 8000612:	4b09      	ldr	r3, [pc, #36]	; (8000638 <vTaskStartScheduler+0x4c>)
 8000614:	f04f 32ff 	mov.w	r2, #4294967295	; 0xffffffff
 8000618:	601a      	str	r2, [r3, #0]
 800061a:	4b08      	ldr	r3, [pc, #32]	; (800063c <vTaskStartScheduler+0x50>)
 800061c:	2201      	movs	r2, #1
 800061e:	601a      	str	r2, [r3, #0]
 8000620:	4b07      	ldr	r3, [pc, #28]	; (8000640 <vTaskStartScheduler+0x54>)
 8000622:	2200      	movs	r2, #0
 8000624:	601a      	str	r2, [r3, #0]
 8000626:	f003 fbf8 	bl	8003e1a <xPortStartScheduler>
 800062a:	4b06      	ldr	r3, [pc, #24]	; (8000644 <vTaskStartScheduler+0x58>)
 800062c:	681b      	ldr	r3, [r3, #0]
 800062e:	bf00      	nop
 8000630:	3708      	adds	r7, #8
 8000632:	46bd      	mov	sp, r7
 8000634:	bd80      	pop	{r7, pc}
 8000636:	bf00      	nop
 8000638:	20000358 	andcs	r0, r0, r8, asr r3
 800063c:	20000344 	andcs	r0, r0, r4, asr #6
 8000640:	2000033c 	andcs	r0, r0, ip, lsr r3
 8000644:	20000004 	andcs	r0, r0, r4

08000648 <vTaskEndScheduler>:
 8000648:	b580      	push	{r7, lr}
 800064a:	b082      	sub	sp, #8
 800064c:	af00      	add	r7, sp, #0
 800064e:	f04f 0350 	mov.w	r3, #80	; 0x50
 8000652:	f383 8811 	msr	BASEPRI, r3
 8000656:	f3bf 8f6f 	isb	sy
 800065a:	f3bf 8f4f 	dsb	sy
 800065e:	607b      	str	r3, [r7, #4]
 8000660:	bf00      	nop
 8000662:	4b04      	ldr	r3, [pc, #16]	; (8000674 <vTaskEndScheduler+0x2c>)
 8000664:	2200      	movs	r2, #0
 8000666:	601a      	str	r2, [r3, #0]
 8000668:	f003 fc0e 	bl	8003e88 <vPortEndScheduler>
 800066c:	bf00      	nop
 800066e:	3708      	adds	r7, #8
 8000670:	46bd      	mov	sp, r7
 8000672:	bd80      	pop	{r7, pc}
 8000674:	20000344 	andcs	r0, r0, r4, asr #6

08000678 <vTaskSuspendAll>:
 8000678:	b480      	push	{r7}
 800067a:	af00      	add	r7, sp, #0
 800067c:	4b04      	ldr	r3, [pc, #16]	; (8000690 <vTaskSuspendAll+0x18>)
 800067e:	681b      	ldr	r3, [r3, #0]
 8000680:	3301      	adds	r3, #1
 8000682:	4a03      	ldr	r2, [pc, #12]	; (8000690 <vTaskSuspendAll+0x18>)
 8000684:	6013      	str	r3, [r2, #0]
 8000686:	bf00      	nop
 8000688:	46bd      	mov	sp, r7
 800068a:	f85d 7b04 	ldr.w	r7, [sp], #4
 800068e:	4770      	bx	lr
 8000690:	20000360 	andcs	r0, r0, r0, ror #6

08000694 <xTaskResumeAll>:
 8000694:	b580      	push	{r7, lr}
 8000696:	b088      	sub	sp, #32
 8000698:	af00      	add	r7, sp, #0
 800069a:	2300      	movs	r3, #0
 800069c:	61fb      	str	r3, [r7, #28]
 800069e:	2300      	movs	r3, #0
 80006a0:	61bb      	str	r3, [r7, #24]
 80006a2:	f003 fbf8 	bl	8003e96 <vPortEnterCritical>
 80006a6:	2300      	movs	r3, #0
 80006a8:	613b      	str	r3, [r7, #16]
 80006aa:	4b6d      	ldr	r3, [pc, #436]	; (8000860 <xTaskResumeAll+0x1cc>)
 80006ac:	681b      	ldr	r3, [r3, #0]
 80006ae:	3b01      	subs	r3, #1
 80006b0:	4a6b      	ldr	r2, [pc, #428]	; (8000860 <xTaskResumeAll+0x1cc>)
 80006b2:	6013      	str	r3, [r2, #0]
 80006b4:	4b6a      	ldr	r3, [pc, #424]	; (8000860 <xTaskResumeAll+0x1cc>)
 80006b6:	681b      	ldr	r3, [r3, #0]
 80006b8:	2b00      	cmp	r3, #0
 80006ba:	f040 80ca 	bne.w	8000852 <xTaskResumeAll+0x1be>
 80006be:	4b69      	ldr	r3, [pc, #420]	; (8000864 <xTaskResumeAll+0x1d0>)
 80006c0:	681b      	ldr	r3, [r3, #0]
 80006c2:	2b00      	cmp	r3, #0
 80006c4:	f000 80c5 	beq.w	8000852 <xTaskResumeAll+0x1be>
 80006c8:	e08e      	b.n	80007e8 <xTaskResumeAll+0x154>
 80006ca:	4b67      	ldr	r3, [pc, #412]	; (8000868 <xTaskResumeAll+0x1d4>)
 80006cc:	68db      	ldr	r3, [r3, #12]
 80006ce:	68db      	ldr	r3, [r3, #12]
 80006d0:	61fb      	str	r3, [r7, #28]
 80006d2:	69fb      	ldr	r3, [r7, #28]
 80006d4:	6a9b      	ldr	r3, [r3, #40]	; 0x28
 80006d6:	60fb      	str	r3, [r7, #12]
 80006d8:	69fb      	ldr	r3, [r7, #28]
 80006da:	69db      	ldr	r3, [r3, #28]
 80006dc:	69fa      	ldr	r2, [r7, #28]
 80006de:	6a12      	ldr	r2, [r2, #32]
 80006e0:	609a      	str	r2, [r3, #8]
 80006e2:	69fb      	ldr	r3, [r7, #28]
 80006e4:	6a1b      	ldr	r3, [r3, #32]
 80006e6:	69fa      	ldr	r2, [r7, #28]
 80006e8:	69d2      	ldr	r2, [r2, #28]
 80006ea:	605a      	str	r2, [r3, #4]
 80006ec:	68fb      	ldr	r3, [r7, #12]
 80006ee:	685a      	ldr	r2, [r3, #4]
 80006f0:	69fb      	ldr	r3, [r7, #28]
 80006f2:	3318      	adds	r3, #24
 80006f4:	429a      	cmp	r2, r3
 80006f6:	d103      	bne.n	8000700 <xTaskResumeAll+0x6c>
 80006f8:	69fb      	ldr	r3, [r7, #28]
 80006fa:	6a1a      	ldr	r2, [r3, #32]
 80006fc:	68fb      	ldr	r3, [r7, #12]
 80006fe:	605a      	str	r2, [r3, #4]
 8000700:	69fb      	ldr	r3, [r7, #28]
 8000702:	2200      	movs	r2, #0
 8000704:	629a      	str	r2, [r3, #40]	; 0x28
 8000706:	68fb      	ldr	r3, [r7, #12]
 8000708:	681b      	ldr	r3, [r3, #0]
 800070a:	1e5a      	subs	r2, r3, #1
 800070c:	68fb      	ldr	r3, [r7, #12]
 800070e:	601a      	str	r2, [r3, #0]
 8000710:	69fb      	ldr	r3, [r7, #28]
 8000712:	695b      	ldr	r3, [r3, #20]
 8000714:	60bb      	str	r3, [r7, #8]
 8000716:	69fb      	ldr	r3, [r7, #28]
 8000718:	689b      	ldr	r3, [r3, #8]
 800071a:	69fa      	ldr	r2, [r7, #28]
 800071c:	68d2      	ldr	r2, [r2, #12]
 800071e:	609a      	str	r2, [r3, #8]
 8000720:	69fb      	ldr	r3, [r7, #28]
 8000722:	68db      	ldr	r3, [r3, #12]
 8000724:	69fa      	ldr	r2, [r7, #28]
 8000726:	6892      	ldr	r2, [r2, #8]
 8000728:	605a      	str	r2, [r3, #4]
 800072a:	68bb      	ldr	r3, [r7, #8]
 800072c:	685a      	ldr	r2, [r3, #4]
 800072e:	69fb      	ldr	r3, [r7, #28]
 8000730:	3304      	adds	r3, #4
 8000732:	429a      	cmp	r2, r3
 8000734:	d103      	bne.n	800073e <xTaskResumeAll+0xaa>
 8000736:	69fb      	ldr	r3, [r7, #28]
 8000738:	68da      	ldr	r2, [r3, #12]
 800073a:	68bb      	ldr	r3, [r7, #8]
 800073c:	605a      	str	r2, [r3, #4]
 800073e:	69fb      	ldr	r3, [r7, #28]
 8000740:	2200      	movs	r2, #0
 8000742:	615a      	str	r2, [r3, #20]
 8000744:	68bb      	ldr	r3, [r7, #8]
 8000746:	681b      	ldr	r3, [r3, #0]
 8000748:	1e5a      	subs	r2, r3, #1
 800074a:	68bb      	ldr	r3, [r7, #8]
 800074c:	601a      	str	r2, [r3, #0]
 800074e:	69fb      	ldr	r3, [r7, #28]
 8000750:	6adb      	ldr	r3, [r3, #44]	; 0x2c
 8000752:	2201      	movs	r2, #1
 8000754:	409a      	lsls	r2, r3
 8000756:	4b45      	ldr	r3, [pc, #276]	; (800086c <xTaskResumeAll+0x1d8>)
 8000758:	681b      	ldr	r3, [r3, #0]
 800075a:	4313      	orrs	r3, r2
 800075c:	4a43      	ldr	r2, [pc, #268]	; (800086c <xTaskResumeAll+0x1d8>)
 800075e:	6013      	str	r3, [r2, #0]
 8000760:	69fb      	ldr	r3, [r7, #28]
 8000762:	6ada      	ldr	r2, [r3, #44]	; 0x2c
 8000764:	4942      	ldr	r1, [pc, #264]	; (8000870 <xTaskResumeAll+0x1dc>)
 8000766:	4613      	mov	r3, r2
 8000768:	009b      	lsls	r3, r3, #2
 800076a:	4413      	add	r3, r2
 800076c:	009b      	lsls	r3, r3, #2
 800076e:	440b      	add	r3, r1
 8000770:	3304      	adds	r3, #4
 8000772:	681b      	ldr	r3, [r3, #0]
 8000774:	607b      	str	r3, [r7, #4]
 8000776:	69fb      	ldr	r3, [r7, #28]
 8000778:	687a      	ldr	r2, [r7, #4]
 800077a:	609a      	str	r2, [r3, #8]
 800077c:	687b      	ldr	r3, [r7, #4]
 800077e:	689a      	ldr	r2, [r3, #8]
 8000780:	69fb      	ldr	r3, [r7, #28]
 8000782:	60da      	str	r2, [r3, #12]
 8000784:	687b      	ldr	r3, [r7, #4]
 8000786:	689b      	ldr	r3, [r3, #8]
 8000788:	69fa      	ldr	r2, [r7, #28]
 800078a:	3204      	adds	r2, #4
 800078c:	605a      	str	r2, [r3, #4]
 800078e:	69fb      	ldr	r3, [r7, #28]
 8000790:	1d1a      	adds	r2, r3, #4
 8000792:	687b      	ldr	r3, [r7, #4]
 8000794:	609a      	str	r2, [r3, #8]
 8000796:	69fb      	ldr	r3, [r7, #28]
 8000798:	6ada      	ldr	r2, [r3, #44]	; 0x2c
 800079a:	4613      	mov	r3, r2
 800079c:	009b      	lsls	r3, r3, #2
 800079e:	4413      	add	r3, r2
 80007a0:	009b      	lsls	r3, r3, #2
 80007a2:	4a33      	ldr	r2, [pc, #204]	; (8000870 <xTaskResumeAll+0x1dc>)
 80007a4:	441a      	add	r2, r3
 80007a6:	69fb      	ldr	r3, [r7, #28]
 80007a8:	615a      	str	r2, [r3, #20]
 80007aa:	69fb      	ldr	r3, [r7, #28]
 80007ac:	6ada      	ldr	r2, [r3, #44]	; 0x2c
 80007ae:	4930      	ldr	r1, [pc, #192]	; (8000870 <xTaskResumeAll+0x1dc>)
 80007b0:	4613      	mov	r3, r2
 80007b2:	009b      	lsls	r3, r3, #2
 80007b4:	4413      	add	r3, r2
 80007b6:	009b      	lsls	r3, r3, #2
 80007b8:	440b      	add	r3, r1
 80007ba:	681b      	ldr	r3, [r3, #0]
 80007bc:	69fa      	ldr	r2, [r7, #28]
 80007be:	6ad2      	ldr	r2, [r2, #44]	; 0x2c
 80007c0:	1c59      	adds	r1, r3, #1
 80007c2:	482b      	ldr	r0, [pc, #172]	; (8000870 <xTaskResumeAll+0x1dc>)
 80007c4:	4613      	mov	r3, r2
 80007c6:	009b      	lsls	r3, r3, #2
 80007c8:	4413      	add	r3, r2
 80007ca:	009b      	lsls	r3, r3, #2
 80007cc:	4403      	add	r3, r0
 80007ce:	6019      	str	r1, [r3, #0]
 80007d0:	69fb      	ldr	r3, [r7, #28]
 80007d2:	6ada      	ldr	r2, [r3, #44]	; 0x2c
 80007d4:	4b27      	ldr	r3, [pc, #156]	; (8000874 <xTaskResumeAll+0x1e0>)
 80007d6:	681b      	ldr	r3, [r3, #0]
 80007d8:	6adb      	ldr	r3, [r3, #44]	; 0x2c
 80007da:	429a      	cmp	r2, r3
 80007dc:	d904      	bls.n	80007e8 <xTaskResumeAll+0x154>
 80007de:	4a26      	ldr	r2, [pc, #152]	; (8000878 <xTaskResumeAll+0x1e4>)
 80007e0:	693b      	ldr	r3, [r7, #16]
 80007e2:	2101      	movs	r1, #1
 80007e4:	f842 1023 	str.w	r1, [r2, r3, lsl #2]
 80007e8:	4b1f      	ldr	r3, [pc, #124]	; (8000868 <xTaskResumeAll+0x1d4>)
 80007ea:	681b      	ldr	r3, [r3, #0]
 80007ec:	2b00      	cmp	r3, #0
 80007ee:	f47f af6c 	bne.w	80006ca <xTaskResumeAll+0x36>
 80007f2:	69fb      	ldr	r3, [r7, #28]
 80007f4:	2b00      	cmp	r3, #0
 80007f6:	d001      	beq.n	80007fc <xTaskResumeAll+0x168>
 80007f8:	f000 fcaf 	bl	800115a <prvResetNextTaskUnblockTime>
 80007fc:	4b1f      	ldr	r3, [pc, #124]	; (800087c <xTaskResumeAll+0x1e8>)
 80007fe:	681b      	ldr	r3, [r3, #0]
 8000800:	617b      	str	r3, [r7, #20]
 8000802:	697b      	ldr	r3, [r7, #20]
 8000804:	2b00      	cmp	r3, #0
 8000806:	d012      	beq.n	800082e <xTaskResumeAll+0x19a>
 8000808:	f000 f89a 	bl	8000940 <xTaskIncrementTick>
 800080c:	4603      	mov	r3, r0
 800080e:	2b00      	cmp	r3, #0
 8000810:	d004      	beq.n	800081c <xTaskResumeAll+0x188>
 8000812:	4a19      	ldr	r2, [pc, #100]	; (8000878 <xTaskResumeAll+0x1e4>)
 8000814:	693b      	ldr	r3, [r7, #16]
 8000816:	2101      	movs	r1, #1
 8000818:	f842 1023 	str.w	r1, [r2, r3, lsl #2]
 800081c:	697b      	ldr	r3, [r7, #20]
 800081e:	3b01      	subs	r3, #1
 8000820:	617b      	str	r3, [r7, #20]
 8000822:	697b      	ldr	r3, [r7, #20]
 8000824:	2b00      	cmp	r3, #0
 8000826:	d1ef      	bne.n	8000808 <xTaskResumeAll+0x174>
 8000828:	4b14      	ldr	r3, [pc, #80]	; (800087c <xTaskResumeAll+0x1e8>)
 800082a:	2200      	movs	r2, #0
 800082c:	601a      	str	r2, [r3, #0]
 800082e:	4a12      	ldr	r2, [pc, #72]	; (8000878 <xTaskResumeAll+0x1e4>)
 8000830:	693b      	ldr	r3, [r7, #16]
 8000832:	f852 3023 	ldr.w	r3, [r2, r3, lsl #2]
 8000836:	2b00      	cmp	r3, #0
 8000838:	d00b      	beq.n	8000852 <xTaskResumeAll+0x1be>
 800083a:	2301      	movs	r3, #1
 800083c:	61bb      	str	r3, [r7, #24]
 800083e:	4b0d      	ldr	r3, [pc, #52]	; (8000874 <xTaskResumeAll+0x1e0>)
 8000840:	681b      	ldr	r3, [r3, #0]
 8000842:	4b0f      	ldr	r3, [pc, #60]	; (8000880 <xTaskResumeAll+0x1ec>)
 8000844:	f04f 5280 	mov.w	r2, #268435456	; 0x10000000
 8000848:	601a      	str	r2, [r3, #0]
 800084a:	f3bf 8f4f 	dsb	sy
 800084e:	f3bf 8f6f 	isb	sy
 8000852:	f003 fb3b 	bl	8003ecc <vPortExitCritical>
 8000856:	69bb      	ldr	r3, [r7, #24]
 8000858:	4618      	mov	r0, r3
 800085a:	3720      	adds	r7, #32
 800085c:	46bd      	mov	sp, r7
 800085e:	bd80      	pop	{r7, pc}
 8000860:	20000360 	andcs	r0, r0, r0, ror #6
 8000864:	20000338 	andcs	r0, r0, r8, lsr r3
 8000868:	20000324 	andcs	r0, r0, r4, lsr #6
 800086c:	20000340 	andcs	r0, r0, r0, asr #6
 8000870:	2000022c 	andcs	r0, r0, ip, lsr #4
 8000874:	20000228 	andcs	r0, r0, r8, lsr #4
 8000878:	2000034c 	andcs	r0, r0, ip, asr #6
 800087c:	20000348 	andcs	r0, r0, r8, asr #6
 8000880:	e000ed04 	and	lr, r0, r4, lsl #26

08000884 <xTaskGetTickCount>:
 8000884:	b480      	push	{r7}
 8000886:	b083      	sub	sp, #12
 8000888:	af00      	add	r7, sp, #0
 800088a:	4b05      	ldr	r3, [pc, #20]	; (80008a0 <xTaskGetTickCount+0x1c>)
 800088c:	681b      	ldr	r3, [r3, #0]
 800088e:	607b      	str	r3, [r7, #4]
 8000890:	687b      	ldr	r3, [r7, #4]
 8000892:	4618      	mov	r0, r3
 8000894:	370c      	adds	r7, #12
 8000896:	46bd      	mov	sp, r7
 8000898:	f85d 7b04 	ldr.w	r7, [sp], #4
 800089c:	4770      	bx	lr
 800089e:	bf00      	nop
 80008a0:	2000033c 	andcs	r0, r0, ip, lsr r3

080008a4 <xTaskGetTickCountFromISR>:
 80008a4:	b480      	push	{r7}
 80008a6:	b083      	sub	sp, #12
 80008a8:	af00      	add	r7, sp, #0
 80008aa:	2300      	movs	r3, #0
 80008ac:	607b      	str	r3, [r7, #4]
 80008ae:	4b05      	ldr	r3, [pc, #20]	; (80008c4 <xTaskGetTickCountFromISR+0x20>)
 80008b0:	681b      	ldr	r3, [r3, #0]
 80008b2:	603b      	str	r3, [r7, #0]
 80008b4:	683b      	ldr	r3, [r7, #0]
 80008b6:	4618      	mov	r0, r3
 80008b8:	370c      	adds	r7, #12
 80008ba:	46bd      	mov	sp, r7
 80008bc:	f85d 7b04 	ldr.w	r7, [sp], #4
 80008c0:	4770      	bx	lr
 80008c2:	bf00      	nop
 80008c4:	2000033c 	andcs	r0, r0, ip, lsr r3

080008c8 <uxTaskGetNumberOfTasks>:
 80008c8:	b480      	push	{r7}
 80008ca:	af00      	add	r7, sp, #0
 80008cc:	4b03      	ldr	r3, [pc, #12]	; (80008dc <uxTaskGetNumberOfTasks+0x14>)
 80008ce:	681b      	ldr	r3, [r3, #0]
 80008d0:	4618      	mov	r0, r3
 80008d2:	46bd      	mov	sp, r7
 80008d4:	f85d 7b04 	ldr.w	r7, [sp], #4
 80008d8:	4770      	bx	lr
 80008da:	bf00      	nop
 80008dc:	20000338 	andcs	r0, r0, r8, lsr r3

080008e0 <pcTaskGetName>:
 80008e0:	b480      	push	{r7}
 80008e2:	b085      	sub	sp, #20
 80008e4:	af00      	add	r7, sp, #0
 80008e6:	6078      	str	r0, [r7, #4]
 80008e8:	687b      	ldr	r3, [r7, #4]
 80008ea:	2b00      	cmp	r3, #0
 80008ec:	d102      	bne.n	80008f4 <pcTaskGetName+0x14>
 80008ee:	4b06      	ldr	r3, [pc, #24]	; (8000908 <pcTaskGetName+0x28>)
 80008f0:	681b      	ldr	r3, [r3, #0]
 80008f2:	e000      	b.n	80008f6 <pcTaskGetName+0x16>
 80008f4:	687b      	ldr	r3, [r7, #4]
 80008f6:	60fb      	str	r3, [r7, #12]
 80008f8:	68fb      	ldr	r3, [r7, #12]
 80008fa:	3334      	adds	r3, #52	; 0x34
 80008fc:	4618      	mov	r0, r3
 80008fe:	3714      	adds	r7, #20
 8000900:	46bd      	mov	sp, r7
 8000902:	f85d 7b04 	ldr.w	r7, [sp], #4
 8000906:	4770      	bx	lr
 8000908:	20000228 	andcs	r0, r0, r8, lsr #4

0800090c <xTaskCatchUpTicks>:
 800090c:	b580      	push	{r7, lr}
 800090e:	b084      	sub	sp, #16
 8000910:	af00      	add	r7, sp, #0
 8000912:	6078      	str	r0, [r7, #4]
 8000914:	f7ff feb0 	bl	8000678 <vTaskSuspendAll>
 8000918:	f003 fabd 	bl	8003e96 <vPortEnterCritical>
 800091c:	4b07      	ldr	r3, [pc, #28]	; (800093c <xTaskCatchUpTicks+0x30>)
 800091e:	681a      	ldr	r2, [r3, #0]
 8000920:	687b      	ldr	r3, [r7, #4]
 8000922:	4413      	add	r3, r2
 8000924:	4a05      	ldr	r2, [pc, #20]	; (800093c <xTaskCatchUpTicks+0x30>)
 8000926:	6013      	str	r3, [r2, #0]
 8000928:	f003 fad0 	bl	8003ecc <vPortExitCritical>
 800092c:	f7ff feb2 	bl	8000694 <xTaskResumeAll>
 8000930:	60f8      	str	r0, [r7, #12]
 8000932:	68fb      	ldr	r3, [r7, #12]
 8000934:	4618      	mov	r0, r3
 8000936:	3710      	adds	r7, #16
 8000938:	46bd      	mov	sp, r7
 800093a:	bd80      	pop	{r7, pc}
 800093c:	20000348 	andcs	r0, r0, r8, asr #6

08000940 <xTaskIncrementTick>:
 8000940:	b580      	push	{r7, lr}
 8000942:	b088      	sub	sp, #32
 8000944:	af00      	add	r7, sp, #0
 8000946:	2300      	movs	r3, #0
 8000948:	61fb      	str	r3, [r7, #28]
 800094a:	4b76      	ldr	r3, [pc, #472]	; (8000b24 <xTaskIncrementTick+0x1e4>)
 800094c:	681b      	ldr	r3, [r3, #0]
 800094e:	2b00      	cmp	r3, #0
 8000950:	f040 80de 	bne.w	8000b10 <xTaskIncrementTick+0x1d0>
 8000954:	4b74      	ldr	r3, [pc, #464]	; (8000b28 <xTaskIncrementTick+0x1e8>)
 8000956:	681b      	ldr	r3, [r3, #0]
 8000958:	3301      	adds	r3, #1
 800095a:	61bb      	str	r3, [r7, #24]
 800095c:	4a72      	ldr	r2, [pc, #456]	; (8000b28 <xTaskIncrementTick+0x1e8>)
 800095e:	69bb      	ldr	r3, [r7, #24]
 8000960:	6013      	str	r3, [r2, #0]
 8000962:	69bb      	ldr	r3, [r7, #24]
 8000964:	2b00      	cmp	r3, #0
 8000966:	d110      	bne.n	800098a <xTaskIncrementTick+0x4a>
 8000968:	4b70      	ldr	r3, [pc, #448]	; (8000b2c <xTaskIncrementTick+0x1ec>)
 800096a:	681b      	ldr	r3, [r3, #0]
 800096c:	617b      	str	r3, [r7, #20]
 800096e:	4b70      	ldr	r3, [pc, #448]	; (8000b30 <xTaskIncrementTick+0x1f0>)
 8000970:	681b      	ldr	r3, [r3, #0]
 8000972:	4a6e      	ldr	r2, [pc, #440]	; (8000b2c <xTaskIncrementTick+0x1ec>)
 8000974:	6013      	str	r3, [r2, #0]
 8000976:	4a6e      	ldr	r2, [pc, #440]	; (8000b30 <xTaskIncrementTick+0x1f0>)
 8000978:	697b      	ldr	r3, [r7, #20]
 800097a:	6013      	str	r3, [r2, #0]
 800097c:	4b6d      	ldr	r3, [pc, #436]	; (8000b34 <xTaskIncrementTick+0x1f4>)
 800097e:	681b      	ldr	r3, [r3, #0]
 8000980:	3301      	adds	r3, #1
 8000982:	4a6c      	ldr	r2, [pc, #432]	; (8000b34 <xTaskIncrementTick+0x1f4>)
 8000984:	6013      	str	r3, [r2, #0]
 8000986:	f000 fbe8 	bl	800115a <prvResetNextTaskUnblockTime>
 800098a:	4b6b      	ldr	r3, [pc, #428]	; (8000b38 <xTaskIncrementTick+0x1f8>)
 800098c:	681b      	ldr	r3, [r3, #0]
 800098e:	69ba      	ldr	r2, [r7, #24]
 8000990:	429a      	cmp	r2, r3
 8000992:	f0c0 80a8 	bcc.w	8000ae6 <xTaskIncrementTick+0x1a6>
 8000996:	4b65      	ldr	r3, [pc, #404]	; (8000b2c <xTaskIncrementTick+0x1ec>)
 8000998:	681b      	ldr	r3, [r3, #0]
 800099a:	681b      	ldr	r3, [r3, #0]
 800099c:	2b00      	cmp	r3, #0
 800099e:	d104      	bne.n	80009aa <xTaskIncrementTick+0x6a>
 80009a0:	4b65      	ldr	r3, [pc, #404]	; (8000b38 <xTaskIncrementTick+0x1f8>)
 80009a2:	f04f 32ff 	mov.w	r2, #4294967295	; 0xffffffff
 80009a6:	601a      	str	r2, [r3, #0]
 80009a8:	e09d      	b.n	8000ae6 <xTaskIncrementTick+0x1a6>
 80009aa:	4b60      	ldr	r3, [pc, #384]	; (8000b2c <xTaskIncrementTick+0x1ec>)
 80009ac:	681b      	ldr	r3, [r3, #0]
 80009ae:	68db      	ldr	r3, [r3, #12]
 80009b0:	68db      	ldr	r3, [r3, #12]
 80009b2:	613b      	str	r3, [r7, #16]
 80009b4:	693b      	ldr	r3, [r7, #16]
 80009b6:	685b      	ldr	r3, [r3, #4]
 80009b8:	60fb      	str	r3, [r7, #12]
 80009ba:	69ba      	ldr	r2, [r7, #24]
 80009bc:	68fb      	ldr	r3, [r7, #12]
 80009be:	429a      	cmp	r2, r3
 80009c0:	d203      	bcs.n	80009ca <xTaskIncrementTick+0x8a>
 80009c2:	4a5d      	ldr	r2, [pc, #372]	; (8000b38 <xTaskIncrementTick+0x1f8>)
 80009c4:	68fb      	ldr	r3, [r7, #12]
 80009c6:	6013      	str	r3, [r2, #0]
 80009c8:	e08d      	b.n	8000ae6 <xTaskIncrementTick+0x1a6>
 80009ca:	693b      	ldr	r3, [r7, #16]
 80009cc:	695b      	ldr	r3, [r3, #20]
 80009ce:	60bb      	str	r3, [r7, #8]
 80009d0:	693b      	ldr	r3, [r7, #16]
 80009d2:	689b      	ldr	r3, [r3, #8]
 80009d4:	693a      	ldr	r2, [r7, #16]
 80009d6:	68d2      	ldr	r2, [r2, #12]
 80009d8:	609a      	str	r2, [r3, #8]
 80009da:	693b      	ldr	r3, [r7, #16]
 80009dc:	68db      	ldr	r3, [r3, #12]
 80009de:	693a      	ldr	r2, [r7, #16]
 80009e0:	6892      	ldr	r2, [r2, #8]
 80009e2:	605a      	str	r2, [r3, #4]
 80009e4:	68bb      	ldr	r3, [r7, #8]
 80009e6:	685a      	ldr	r2, [r3, #4]
 80009e8:	693b      	ldr	r3, [r7, #16]
 80009ea:	3304      	adds	r3, #4
 80009ec:	429a      	cmp	r2, r3
 80009ee:	d103      	bne.n	80009f8 <xTaskIncrementTick+0xb8>
 80009f0:	693b      	ldr	r3, [r7, #16]
 80009f2:	68da      	ldr	r2, [r3, #12]
 80009f4:	68bb      	ldr	r3, [r7, #8]
 80009f6:	605a      	str	r2, [r3, #4]
 80009f8:	693b      	ldr	r3, [r7, #16]
 80009fa:	2200      	movs	r2, #0
 80009fc:	615a      	str	r2, [r3, #20]
 80009fe:	68bb      	ldr	r3, [r7, #8]
 8000a00:	681b      	ldr	r3, [r3, #0]
 8000a02:	1e5a      	subs	r2, r3, #1
 8000a04:	68bb      	ldr	r3, [r7, #8]
 8000a06:	601a      	str	r2, [r3, #0]
 8000a08:	693b      	ldr	r3, [r7, #16]
 8000a0a:	6a9b      	ldr	r3, [r3, #40]	; 0x28
 8000a0c:	2b00      	cmp	r3, #0
 8000a0e:	d01e      	beq.n	8000a4e <xTaskIncrementTick+0x10e>
 8000a10:	693b      	ldr	r3, [r7, #16]
 8000a12:	6a9b      	ldr	r3, [r3, #40]	; 0x28
 8000a14:	607b      	str	r3, [r7, #4]
 8000a16:	693b      	ldr	r3, [r7, #16]
 8000a18:	69db      	ldr	r3, [r3, #28]
 8000a1a:	693a      	ldr	r2, [r7, #16]
 8000a1c:	6a12      	ldr	r2, [r2, #32]
 8000a1e:	609a      	str	r2, [r3, #8]
 8000a20:	693b      	ldr	r3, [r7, #16]
 8000a22:	6a1b      	ldr	r3, [r3, #32]
 8000a24:	693a      	ldr	r2, [r7, #16]
 8000a26:	69d2      	ldr	r2, [r2, #28]
 8000a28:	605a      	str	r2, [r3, #4]
 8000a2a:	687b      	ldr	r3, [r7, #4]
 8000a2c:	685a      	ldr	r2, [r3, #4]
 8000a2e:	693b      	ldr	r3, [r7, #16]
 8000a30:	3318      	adds	r3, #24
 8000a32:	429a      	cmp	r2, r3
 8000a34:	d103      	bne.n	8000a3e <xTaskIncrementTick+0xfe>
 8000a36:	693b      	ldr	r3, [r7, #16]
 8000a38:	6a1a      	ldr	r2, [r3, #32]
 8000a3a:	687b      	ldr	r3, [r7, #4]
 8000a3c:	605a      	str	r2, [r3, #4]
 8000a3e:	693b      	ldr	r3, [r7, #16]
 8000a40:	2200      	movs	r2, #0
 8000a42:	629a      	str	r2, [r3, #40]	; 0x28
 8000a44:	687b      	ldr	r3, [r7, #4]
 8000a46:	681b      	ldr	r3, [r3, #0]
 8000a48:	1e5a      	subs	r2, r3, #1
 8000a4a:	687b      	ldr	r3, [r7, #4]
 8000a4c:	601a      	str	r2, [r3, #0]
 8000a4e:	693b      	ldr	r3, [r7, #16]
 8000a50:	6adb      	ldr	r3, [r3, #44]	; 0x2c
 8000a52:	2201      	movs	r2, #1
 8000a54:	409a      	lsls	r2, r3
 8000a56:	4b39      	ldr	r3, [pc, #228]	; (8000b3c <xTaskIncrementTick+0x1fc>)
 8000a58:	681b      	ldr	r3, [r3, #0]
 8000a5a:	4313      	orrs	r3, r2
 8000a5c:	4a37      	ldr	r2, [pc, #220]	; (8000b3c <xTaskIncrementTick+0x1fc>)
 8000a5e:	6013      	str	r3, [r2, #0]
 8000a60:	693b      	ldr	r3, [r7, #16]
 8000a62:	6ada      	ldr	r2, [r3, #44]	; 0x2c
 8000a64:	4936      	ldr	r1, [pc, #216]	; (8000b40 <xTaskIncrementTick+0x200>)
 8000a66:	4613      	mov	r3, r2
 8000a68:	009b      	lsls	r3, r3, #2
 8000a6a:	4413      	add	r3, r2
 8000a6c:	009b      	lsls	r3, r3, #2
 8000a6e:	440b      	add	r3, r1
 8000a70:	3304      	adds	r3, #4
 8000a72:	681b      	ldr	r3, [r3, #0]
 8000a74:	603b      	str	r3, [r7, #0]
 8000a76:	693b      	ldr	r3, [r7, #16]
 8000a78:	683a      	ldr	r2, [r7, #0]
 8000a7a:	609a      	str	r2, [r3, #8]
 8000a7c:	683b      	ldr	r3, [r7, #0]
 8000a7e:	689a      	ldr	r2, [r3, #8]
 8000a80:	693b      	ldr	r3, [r7, #16]
 8000a82:	60da      	str	r2, [r3, #12]
 8000a84:	683b      	ldr	r3, [r7, #0]
 8000a86:	689b      	ldr	r3, [r3, #8]
 8000a88:	693a      	ldr	r2, [r7, #16]
 8000a8a:	3204      	adds	r2, #4
 8000a8c:	605a      	str	r2, [r3, #4]
 8000a8e:	693b      	ldr	r3, [r7, #16]
 8000a90:	1d1a      	adds	r2, r3, #4
 8000a92:	683b      	ldr	r3, [r7, #0]
 8000a94:	609a      	str	r2, [r3, #8]
 8000a96:	693b      	ldr	r3, [r7, #16]
 8000a98:	6ada      	ldr	r2, [r3, #44]	; 0x2c
 8000a9a:	4613      	mov	r3, r2
 8000a9c:	009b      	lsls	r3, r3, #2
 8000a9e:	4413      	add	r3, r2
 8000aa0:	009b      	lsls	r3, r3, #2
 8000aa2:	4a27      	ldr	r2, [pc, #156]	; (8000b40 <xTaskIncrementTick+0x200>)
 8000aa4:	441a      	add	r2, r3
 8000aa6:	693b      	ldr	r3, [r7, #16]
 8000aa8:	615a      	str	r2, [r3, #20]
 8000aaa:	693b      	ldr	r3, [r7, #16]
 8000aac:	6ada      	ldr	r2, [r3, #44]	; 0x2c
 8000aae:	4924      	ldr	r1, [pc, #144]	; (8000b40 <xTaskIncrementTick+0x200>)
 8000ab0:	4613      	mov	r3, r2
 8000ab2:	009b      	lsls	r3, r3, #2
 8000ab4:	4413      	add	r3, r2
 8000ab6:	009b      	lsls	r3, r3, #2
 8000ab8:	440b      	add	r3, r1
 8000aba:	681b      	ldr	r3, [r3, #0]
 8000abc:	693a      	ldr	r2, [r7, #16]
 8000abe:	6ad2      	ldr	r2, [r2, #44]	; 0x2c
 8000ac0:	1c59      	adds	r1, r3, #1
 8000ac2:	481f      	ldr	r0, [pc, #124]	; (8000b40 <xTaskIncrementTick+0x200>)
 8000ac4:	4613      	mov	r3, r2
 8000ac6:	009b      	lsls	r3, r3, #2
 8000ac8:	4413      	add	r3, r2
 8000aca:	009b      	lsls	r3, r3, #2
 8000acc:	4403      	add	r3, r0
 8000ace:	6019      	str	r1, [r3, #0]
 8000ad0:	693b      	ldr	r3, [r7, #16]
 8000ad2:	6ada      	ldr	r2, [r3, #44]	; 0x2c
 8000ad4:	4b1b      	ldr	r3, [pc, #108]	; (8000b44 <xTaskIncrementTick+0x204>)
 8000ad6:	681b      	ldr	r3, [r3, #0]
 8000ad8:	6adb      	ldr	r3, [r3, #44]	; 0x2c
 8000ada:	429a      	cmp	r2, r3
 8000adc:	f67f af5b 	bls.w	8000996 <xTaskIncrementTick+0x56>
 8000ae0:	2301      	movs	r3, #1
 8000ae2:	61fb      	str	r3, [r7, #28]
 8000ae4:	e757      	b.n	8000996 <xTaskIncrementTick+0x56>
 8000ae6:	4b17      	ldr	r3, [pc, #92]	; (8000b44 <xTaskIncrementTick+0x204>)
 8000ae8:	681b      	ldr	r3, [r3, #0]
 8000aea:	6ada      	ldr	r2, [r3, #44]	; 0x2c
 8000aec:	4914      	ldr	r1, [pc, #80]	; (8000b40 <xTaskIncrementTick+0x200>)
 8000aee:	4613      	mov	r3, r2
 8000af0:	009b      	lsls	r3, r3, #2
 8000af2:	4413      	add	r3, r2
 8000af4:	009b      	lsls	r3, r3, #2
 8000af6:	440b      	add	r3, r1
 8000af8:	681b      	ldr	r3, [r3, #0]
 8000afa:	2b01      	cmp	r3, #1
 8000afc:	d901      	bls.n	8000b02 <xTaskIncrementTick+0x1c2>
 8000afe:	2301      	movs	r3, #1
 8000b00:	61fb      	str	r3, [r7, #28]
 8000b02:	4b11      	ldr	r3, [pc, #68]	; (8000b48 <xTaskIncrementTick+0x208>)
 8000b04:	681b      	ldr	r3, [r3, #0]
 8000b06:	2b00      	cmp	r3, #0
 8000b08:	d007      	beq.n	8000b1a <xTaskIncrementTick+0x1da>
 8000b0a:	2301      	movs	r3, #1
 8000b0c:	61fb      	str	r3, [r7, #28]
 8000b0e:	e004      	b.n	8000b1a <xTaskIncrementTick+0x1da>
 8000b10:	4b0e      	ldr	r3, [pc, #56]	; (8000b4c <xTaskIncrementTick+0x20c>)
 8000b12:	681b      	ldr	r3, [r3, #0]
 8000b14:	3301      	adds	r3, #1
 8000b16:	4a0d      	ldr	r2, [pc, #52]	; (8000b4c <xTaskIncrementTick+0x20c>)
 8000b18:	6013      	str	r3, [r2, #0]
 8000b1a:	69fb      	ldr	r3, [r7, #28]
 8000b1c:	4618      	mov	r0, r3
 8000b1e:	3720      	adds	r7, #32
 8000b20:	46bd      	mov	sp, r7
 8000b22:	bd80      	pop	{r7, pc}
 8000b24:	20000360 	andcs	r0, r0, r0, ror #6
 8000b28:	2000033c 	andcs	r0, r0, ip, lsr r3
 8000b2c:	2000031c 	andcs	r0, r0, ip, lsl r3
 8000b30:	20000320 	andcs	r0, r0, r0, lsr #6
 8000b34:	20000350 	andcs	r0, r0, r0, asr r3
 8000b38:	20000358 	andcs	r0, r0, r8, asr r3
 8000b3c:	20000340 	andcs	r0, r0, r0, asr #6
 8000b40:	2000022c 	andcs	r0, r0, ip, lsr #4
 8000b44:	20000228 	andcs	r0, r0, r8, lsr #4
 8000b48:	2000034c 	andcs	r0, r0, ip, asr #6
 8000b4c:	20000348 	andcs	r0, r0, r8, asr #6

08000b50 <vTaskSwitchContext>:
 8000b50:	b580      	push	{r7, lr}
 8000b52:	b088      	sub	sp, #32
 8000b54:	af00      	add	r7, sp, #0
 8000b56:	4b35      	ldr	r3, [pc, #212]	; (8000c2c <vTaskSwitchContext+0xdc>)
 8000b58:	681b      	ldr	r3, [r3, #0]
 8000b5a:	2b00      	cmp	r3, #0
 8000b5c:	d003      	beq.n	8000b66 <vTaskSwitchContext+0x16>
 8000b5e:	4b34      	ldr	r3, [pc, #208]	; (8000c30 <vTaskSwitchContext+0xe0>)
 8000b60:	2201      	movs	r2, #1
 8000b62:	601a      	str	r2, [r3, #0]
 8000b64:	e05d      	b.n	8000c22 <vTaskSwitchContext+0xd2>
 8000b66:	4b32      	ldr	r3, [pc, #200]	; (8000c30 <vTaskSwitchContext+0xe0>)
 8000b68:	2200      	movs	r2, #0
 8000b6a:	601a      	str	r2, [r3, #0]
 8000b6c:	4b31      	ldr	r3, [pc, #196]	; (8000c34 <vTaskSwitchContext+0xe4>)
 8000b6e:	681b      	ldr	r3, [r3, #0]
 8000b70:	6b1b      	ldr	r3, [r3, #48]	; 0x30
 8000b72:	61fb      	str	r3, [r7, #28]
 8000b74:	f04f 33a5 	mov.w	r3, #2779096485	; 0xa5a5a5a5
 8000b78:	61bb      	str	r3, [r7, #24]
 8000b7a:	4b2e      	ldr	r3, [pc, #184]	; (8000c34 <vTaskSwitchContext+0xe4>)
 8000b7c:	681b      	ldr	r3, [r3, #0]
 8000b7e:	681b      	ldr	r3, [r3, #0]
 8000b80:	617b      	str	r3, [r7, #20]
 8000b82:	4b2c      	ldr	r3, [pc, #176]	; (8000c34 <vTaskSwitchContext+0xe4>)
 8000b84:	681b      	ldr	r3, [r3, #0]
 8000b86:	6b1b      	ldr	r3, [r3, #48]	; 0x30
 8000b88:	697a      	ldr	r2, [r7, #20]
 8000b8a:	429a      	cmp	r2, r3
 8000b8c:	d916      	bls.n	8000bbc <vTaskSwitchContext+0x6c>
 8000b8e:	69fb      	ldr	r3, [r7, #28]
 8000b90:	681b      	ldr	r3, [r3, #0]
 8000b92:	69ba      	ldr	r2, [r7, #24]
 8000b94:	429a      	cmp	r2, r3
 8000b96:	d111      	bne.n	8000bbc <vTaskSwitchContext+0x6c>
 8000b98:	69fb      	ldr	r3, [r7, #28]
 8000b9a:	3304      	adds	r3, #4
 8000b9c:	681b      	ldr	r3, [r3, #0]
 8000b9e:	69ba      	ldr	r2, [r7, #24]
 8000ba0:	429a      	cmp	r2, r3
 8000ba2:	d10b      	bne.n	8000bbc <vTaskSwitchContext+0x6c>
 8000ba4:	69fb      	ldr	r3, [r7, #28]
 8000ba6:	3308      	adds	r3, #8
 8000ba8:	681b      	ldr	r3, [r3, #0]
 8000baa:	69ba      	ldr	r2, [r7, #24]
 8000bac:	429a      	cmp	r2, r3
 8000bae:	d105      	bne.n	8000bbc <vTaskSwitchContext+0x6c>
 8000bb0:	69fb      	ldr	r3, [r7, #28]
 8000bb2:	330c      	adds	r3, #12
 8000bb4:	681b      	ldr	r3, [r3, #0]
 8000bb6:	69ba      	ldr	r2, [r7, #24]
 8000bb8:	429a      	cmp	r2, r3
 8000bba:	d009      	beq.n	8000bd0 <vTaskSwitchContext+0x80>
 8000bbc:	4b1d      	ldr	r3, [pc, #116]	; (8000c34 <vTaskSwitchContext+0xe4>)
 8000bbe:	681b      	ldr	r3, [r3, #0]
 8000bc0:	3334      	adds	r3, #52	; 0x34
 8000bc2:	613b      	str	r3, [r7, #16]
 8000bc4:	4b1b      	ldr	r3, [pc, #108]	; (8000c34 <vTaskSwitchContext+0xe4>)
 8000bc6:	681b      	ldr	r3, [r3, #0]
 8000bc8:	6939      	ldr	r1, [r7, #16]
 8000bca:	4618      	mov	r0, r3
 8000bcc:	f003 fa1a 	bl	8004004 <vApplicationStackOverflowHook>
 8000bd0:	4b19      	ldr	r3, [pc, #100]	; (8000c38 <vTaskSwitchContext+0xe8>)
 8000bd2:	681b      	ldr	r3, [r3, #0]
 8000bd4:	607b      	str	r3, [r7, #4]
 8000bd6:	687b      	ldr	r3, [r7, #4]
 8000bd8:	fab3 f383 	clz	r3, r3
 8000bdc:	70fb      	strb	r3, [r7, #3]
 8000bde:	78fb      	ldrb	r3, [r7, #3]
 8000be0:	f1c3 031f 	rsb	r3, r3, #31
 8000be4:	60fb      	str	r3, [r7, #12]
 8000be6:	68fa      	ldr	r2, [r7, #12]
 8000be8:	4613      	mov	r3, r2
 8000bea:	009b      	lsls	r3, r3, #2
 8000bec:	4413      	add	r3, r2
 8000bee:	009b      	lsls	r3, r3, #2
 8000bf0:	4a12      	ldr	r2, [pc, #72]	; (8000c3c <vTaskSwitchContext+0xec>)
 8000bf2:	4413      	add	r3, r2
 8000bf4:	60bb      	str	r3, [r7, #8]
 8000bf6:	68bb      	ldr	r3, [r7, #8]
 8000bf8:	685b      	ldr	r3, [r3, #4]
 8000bfa:	685a      	ldr	r2, [r3, #4]
 8000bfc:	68bb      	ldr	r3, [r7, #8]
 8000bfe:	605a      	str	r2, [r3, #4]
 8000c00:	68bb      	ldr	r3, [r7, #8]
 8000c02:	685a      	ldr	r2, [r3, #4]
 8000c04:	68bb      	ldr	r3, [r7, #8]
 8000c06:	3308      	adds	r3, #8
 8000c08:	429a      	cmp	r2, r3
 8000c0a:	d103      	bne.n	8000c14 <vTaskSwitchContext+0xc4>
 8000c0c:	68bb      	ldr	r3, [r7, #8]
 8000c0e:	68da      	ldr	r2, [r3, #12]
 8000c10:	68bb      	ldr	r3, [r7, #8]
 8000c12:	605a      	str	r2, [r3, #4]
 8000c14:	68bb      	ldr	r3, [r7, #8]
 8000c16:	685b      	ldr	r3, [r3, #4]
 8000c18:	68db      	ldr	r3, [r3, #12]
 8000c1a:	4a06      	ldr	r2, [pc, #24]	; (8000c34 <vTaskSwitchContext+0xe4>)
 8000c1c:	6013      	str	r3, [r2, #0]
 8000c1e:	4b05      	ldr	r3, [pc, #20]	; (8000c34 <vTaskSwitchContext+0xe4>)
 8000c20:	681b      	ldr	r3, [r3, #0]
 8000c22:	bf00      	nop
 8000c24:	3720      	adds	r7, #32
 8000c26:	46bd      	mov	sp, r7
 8000c28:	bd80      	pop	{r7, pc}
 8000c2a:	bf00      	nop
 8000c2c:	20000360 	andcs	r0, r0, r0, ror #6
 8000c30:	2000034c 	andcs	r0, r0, ip, asr #6
 8000c34:	20000228 	andcs	r0, r0, r8, lsr #4
 8000c38:	20000340 	andcs	r0, r0, r0, asr #6
 8000c3c:	2000022c 	andcs	r0, r0, ip, lsr #4

08000c40 <vTaskPlaceOnEventList>:
 8000c40:	b580      	push	{r7, lr}
 8000c42:	b082      	sub	sp, #8
 8000c44:	af00      	add	r7, sp, #0
 8000c46:	6078      	str	r0, [r7, #4]
 8000c48:	6039      	str	r1, [r7, #0]
 8000c4a:	4b07      	ldr	r3, [pc, #28]	; (8000c68 <vTaskPlaceOnEventList+0x28>)
 8000c4c:	681b      	ldr	r3, [r3, #0]
 8000c4e:	3318      	adds	r3, #24
 8000c50:	4619      	mov	r1, r3
 8000c52:	6878      	ldr	r0, [r7, #4]
 8000c54:	f001 fe63 	bl	800291e <vListInsert>
 8000c58:	2101      	movs	r1, #1
 8000c5a:	6838      	ldr	r0, [r7, #0]
 8000c5c:	f000 ff2c 	bl	8001ab8 <prvAddCurrentTaskToDelayedList>
 8000c60:	bf00      	nop
 8000c62:	3708      	adds	r7, #8
 8000c64:	46bd      	mov	sp, r7
 8000c66:	bd80      	pop	{r7, pc}
 8000c68:	20000228 	andcs	r0, r0, r8, lsr #4

08000c6c <vTaskPlaceOnUnorderedEventList>:
 8000c6c:	b580      	push	{r7, lr}
 8000c6e:	b086      	sub	sp, #24
 8000c70:	af00      	add	r7, sp, #0
 8000c72:	60f8      	str	r0, [r7, #12]
 8000c74:	60b9      	str	r1, [r7, #8]
 8000c76:	607a      	str	r2, [r7, #4]
 8000c78:	4b17      	ldr	r3, [pc, #92]	; (8000cd8 <vTaskPlaceOnUnorderedEventList+0x6c>)
 8000c7a:	681b      	ldr	r3, [r3, #0]
 8000c7c:	68ba      	ldr	r2, [r7, #8]
 8000c7e:	f042 4200 	orr.w	r2, r2, #2147483648	; 0x80000000
 8000c82:	619a      	str	r2, [r3, #24]
 8000c84:	68fb      	ldr	r3, [r7, #12]
 8000c86:	685b      	ldr	r3, [r3, #4]
 8000c88:	617b      	str	r3, [r7, #20]
 8000c8a:	4b13      	ldr	r3, [pc, #76]	; (8000cd8 <vTaskPlaceOnUnorderedEventList+0x6c>)
 8000c8c:	681b      	ldr	r3, [r3, #0]
 8000c8e:	697a      	ldr	r2, [r7, #20]
 8000c90:	61da      	str	r2, [r3, #28]
 8000c92:	4b11      	ldr	r3, [pc, #68]	; (8000cd8 <vTaskPlaceOnUnorderedEventList+0x6c>)
 8000c94:	681b      	ldr	r3, [r3, #0]
 8000c96:	697a      	ldr	r2, [r7, #20]
 8000c98:	6892      	ldr	r2, [r2, #8]
 8000c9a:	621a      	str	r2, [r3, #32]
 8000c9c:	4b0e      	ldr	r3, [pc, #56]	; (8000cd8 <vTaskPlaceOnUnorderedEventList+0x6c>)
 8000c9e:	681a      	ldr	r2, [r3, #0]
 8000ca0:	697b      	ldr	r3, [r7, #20]
 8000ca2:	689b      	ldr	r3, [r3, #8]
 8000ca4:	3218      	adds	r2, #24
 8000ca6:	605a      	str	r2, [r3, #4]
 8000ca8:	4b0b      	ldr	r3, [pc, #44]	; (8000cd8 <vTaskPlaceOnUnorderedEventList+0x6c>)
 8000caa:	681b      	ldr	r3, [r3, #0]
 8000cac:	f103 0218 	add.w	r2, r3, #24
 8000cb0:	697b      	ldr	r3, [r7, #20]
 8000cb2:	609a      	str	r2, [r3, #8]
 8000cb4:	4b08      	ldr	r3, [pc, #32]	; (8000cd8 <vTaskPlaceOnUnorderedEventList+0x6c>)
 8000cb6:	681b      	ldr	r3, [r3, #0]
 8000cb8:	68fa      	ldr	r2, [r7, #12]
 8000cba:	629a      	str	r2, [r3, #40]	; 0x28
 8000cbc:	68fb      	ldr	r3, [r7, #12]
 8000cbe:	681b      	ldr	r3, [r3, #0]
 8000cc0:	1c5a      	adds	r2, r3, #1
 8000cc2:	68fb      	ldr	r3, [r7, #12]
 8000cc4:	601a      	str	r2, [r3, #0]
 8000cc6:	2101      	movs	r1, #1
 8000cc8:	6878      	ldr	r0, [r7, #4]
 8000cca:	f000 fef5 	bl	8001ab8 <prvAddCurrentTaskToDelayedList>
 8000cce:	bf00      	nop
 8000cd0:	3718      	adds	r7, #24
 8000cd2:	46bd      	mov	sp, r7
 8000cd4:	bd80      	pop	{r7, pc}
 8000cd6:	bf00      	nop
 8000cd8:	20000228 	andcs	r0, r0, r8, lsr #4

08000cdc <xTaskRemoveFromEventList>:
 8000cdc:	b480      	push	{r7}
 8000cde:	b089      	sub	sp, #36	; 0x24
 8000ce0:	af00      	add	r7, sp, #0
 8000ce2:	6078      	str	r0, [r7, #4]
 8000ce4:	687b      	ldr	r3, [r7, #4]
 8000ce6:	68db      	ldr	r3, [r3, #12]
 8000ce8:	68db      	ldr	r3, [r3, #12]
 8000cea:	61bb      	str	r3, [r7, #24]
 8000cec:	69bb      	ldr	r3, [r7, #24]
 8000cee:	6a9b      	ldr	r3, [r3, #40]	; 0x28
 8000cf0:	617b      	str	r3, [r7, #20]
 8000cf2:	69bb      	ldr	r3, [r7, #24]
 8000cf4:	69db      	ldr	r3, [r3, #28]
 8000cf6:	69ba      	ldr	r2, [r7, #24]
 8000cf8:	6a12      	ldr	r2, [r2, #32]
 8000cfa:	609a      	str	r2, [r3, #8]
 8000cfc:	69bb      	ldr	r3, [r7, #24]
 8000cfe:	6a1b      	ldr	r3, [r3, #32]
 8000d00:	69ba      	ldr	r2, [r7, #24]
 8000d02:	69d2      	ldr	r2, [r2, #28]
 8000d04:	605a      	str	r2, [r3, #4]
 8000d06:	697b      	ldr	r3, [r7, #20]
 8000d08:	685a      	ldr	r2, [r3, #4]
 8000d0a:	69bb      	ldr	r3, [r7, #24]
 8000d0c:	3318      	adds	r3, #24
 8000d0e:	429a      	cmp	r2, r3
 8000d10:	d103      	bne.n	8000d1a <xTaskRemoveFromEventList+0x3e>
 8000d12:	69bb      	ldr	r3, [r7, #24]
 8000d14:	6a1a      	ldr	r2, [r3, #32]
 8000d16:	697b      	ldr	r3, [r7, #20]
 8000d18:	605a      	str	r2, [r3, #4]
 8000d1a:	69bb      	ldr	r3, [r7, #24]
 8000d1c:	2200      	movs	r2, #0
 8000d1e:	629a      	str	r2, [r3, #40]	; 0x28
 8000d20:	697b      	ldr	r3, [r7, #20]
 8000d22:	681b      	ldr	r3, [r3, #0]
 8000d24:	1e5a      	subs	r2, r3, #1
 8000d26:	697b      	ldr	r3, [r7, #20]
 8000d28:	601a      	str	r2, [r3, #0]
 8000d2a:	4b4b      	ldr	r3, [pc, #300]	; (8000e58 <xTaskRemoveFromEventList+0x17c>)
 8000d2c:	681b      	ldr	r3, [r3, #0]
 8000d2e:	2b00      	cmp	r3, #0
 8000d30:	d160      	bne.n	8000df4 <xTaskRemoveFromEventList+0x118>
 8000d32:	69bb      	ldr	r3, [r7, #24]
 8000d34:	695b      	ldr	r3, [r3, #20]
 8000d36:	60fb      	str	r3, [r7, #12]
 8000d38:	69bb      	ldr	r3, [r7, #24]
 8000d3a:	689b      	ldr	r3, [r3, #8]
 8000d3c:	69ba      	ldr	r2, [r7, #24]
 8000d3e:	68d2      	ldr	r2, [r2, #12]
 8000d40:	609a      	str	r2, [r3, #8]
 8000d42:	69bb      	ldr	r3, [r7, #24]
 8000d44:	68db      	ldr	r3, [r3, #12]
 8000d46:	69ba      	ldr	r2, [r7, #24]
 8000d48:	6892      	ldr	r2, [r2, #8]
 8000d4a:	605a      	str	r2, [r3, #4]
 8000d4c:	68fb      	ldr	r3, [r7, #12]
 8000d4e:	685a      	ldr	r2, [r3, #4]
 8000d50:	69bb      	ldr	r3, [r7, #24]
 8000d52:	3304      	adds	r3, #4
 8000d54:	429a      	cmp	r2, r3
 8000d56:	d103      	bne.n	8000d60 <xTaskRemoveFromEventList+0x84>
 8000d58:	69bb      	ldr	r3, [r7, #24]
 8000d5a:	68da      	ldr	r2, [r3, #12]
 8000d5c:	68fb      	ldr	r3, [r7, #12]
 8000d5e:	605a      	str	r2, [r3, #4]
 8000d60:	69bb      	ldr	r3, [r7, #24]
 8000d62:	2200      	movs	r2, #0
 8000d64:	615a      	str	r2, [r3, #20]
 8000d66:	68fb      	ldr	r3, [r7, #12]
 8000d68:	681b      	ldr	r3, [r3, #0]
 8000d6a:	1e5a      	subs	r2, r3, #1
 8000d6c:	68fb      	ldr	r3, [r7, #12]
 8000d6e:	601a      	str	r2, [r3, #0]
 8000d70:	69bb      	ldr	r3, [r7, #24]
 8000d72:	6adb      	ldr	r3, [r3, #44]	; 0x2c
 8000d74:	2201      	movs	r2, #1
 8000d76:	409a      	lsls	r2, r3
 8000d78:	4b38      	ldr	r3, [pc, #224]	; (8000e5c <xTaskRemoveFromEventList+0x180>)
 8000d7a:	681b      	ldr	r3, [r3, #0]
 8000d7c:	4313      	orrs	r3, r2
 8000d7e:	4a37      	ldr	r2, [pc, #220]	; (8000e5c <xTaskRemoveFromEventList+0x180>)
 8000d80:	6013      	str	r3, [r2, #0]
 8000d82:	69bb      	ldr	r3, [r7, #24]
 8000d84:	6ada      	ldr	r2, [r3, #44]	; 0x2c
 8000d86:	4936      	ldr	r1, [pc, #216]	; (8000e60 <xTaskRemoveFromEventList+0x184>)
 8000d88:	4613      	mov	r3, r2
 8000d8a:	009b      	lsls	r3, r3, #2
 8000d8c:	4413      	add	r3, r2
 8000d8e:	009b      	lsls	r3, r3, #2
 8000d90:	440b      	add	r3, r1
 8000d92:	3304      	adds	r3, #4
 8000d94:	681b      	ldr	r3, [r3, #0]
 8000d96:	60bb      	str	r3, [r7, #8]
 8000d98:	69bb      	ldr	r3, [r7, #24]
 8000d9a:	68ba      	ldr	r2, [r7, #8]
 8000d9c:	609a      	str	r2, [r3, #8]
 8000d9e:	68bb      	ldr	r3, [r7, #8]
 8000da0:	689a      	ldr	r2, [r3, #8]
 8000da2:	69bb      	ldr	r3, [r7, #24]
 8000da4:	60da      	str	r2, [r3, #12]
 8000da6:	68bb      	ldr	r3, [r7, #8]
 8000da8:	689b      	ldr	r3, [r3, #8]
 8000daa:	69ba      	ldr	r2, [r7, #24]
 8000dac:	3204      	adds	r2, #4
 8000dae:	605a      	str	r2, [r3, #4]
 8000db0:	69bb      	ldr	r3, [r7, #24]
 8000db2:	1d1a      	adds	r2, r3, #4
 8000db4:	68bb      	ldr	r3, [r7, #8]
 8000db6:	609a      	str	r2, [r3, #8]
 8000db8:	69bb      	ldr	r3, [r7, #24]
 8000dba:	6ada      	ldr	r2, [r3, #44]	; 0x2c
 8000dbc:	4613      	mov	r3, r2
 8000dbe:	009b      	lsls	r3, r3, #2
 8000dc0:	4413      	add	r3, r2
 8000dc2:	009b      	lsls	r3, r3, #2
 8000dc4:	4a26      	ldr	r2, [pc, #152]	; (8000e60 <xTaskRemoveFromEventList+0x184>)
 8000dc6:	441a      	add	r2, r3
 8000dc8:	69bb      	ldr	r3, [r7, #24]
 8000dca:	615a      	str	r2, [r3, #20]
 8000dcc:	69bb      	ldr	r3, [r7, #24]
 8000dce:	6ada      	ldr	r2, [r3, #44]	; 0x2c
 8000dd0:	4923      	ldr	r1, [pc, #140]	; (8000e60 <xTaskRemoveFromEventList+0x184>)
 8000dd2:	4613      	mov	r3, r2
 8000dd4:	009b      	lsls	r3, r3, #2
 8000dd6:	4413      	add	r3, r2
 8000dd8:	009b      	lsls	r3, r3, #2
 8000dda:	440b      	add	r3, r1
 8000ddc:	681b      	ldr	r3, [r3, #0]
 8000dde:	69ba      	ldr	r2, [r7, #24]
 8000de0:	6ad2      	ldr	r2, [r2, #44]	; 0x2c
 8000de2:	1c59      	adds	r1, r3, #1
 8000de4:	481e      	ldr	r0, [pc, #120]	; (8000e60 <xTaskRemoveFromEventList+0x184>)
 8000de6:	4613      	mov	r3, r2
 8000de8:	009b      	lsls	r3, r3, #2
 8000dea:	4413      	add	r3, r2
 8000dec:	009b      	lsls	r3, r3, #2
 8000dee:	4403      	add	r3, r0
 8000df0:	6019      	str	r1, [r3, #0]
 8000df2:	e01b      	b.n	8000e2c <xTaskRemoveFromEventList+0x150>
 8000df4:	4b1b      	ldr	r3, [pc, #108]	; (8000e64 <xTaskRemoveFromEventList+0x188>)
 8000df6:	685b      	ldr	r3, [r3, #4]
 8000df8:	613b      	str	r3, [r7, #16]
 8000dfa:	69bb      	ldr	r3, [r7, #24]
 8000dfc:	693a      	ldr	r2, [r7, #16]
 8000dfe:	61da      	str	r2, [r3, #28]
 8000e00:	693b      	ldr	r3, [r7, #16]
 8000e02:	689a      	ldr	r2, [r3, #8]
 8000e04:	69bb      	ldr	r3, [r7, #24]
 8000e06:	621a      	str	r2, [r3, #32]
 8000e08:	693b      	ldr	r3, [r7, #16]
 8000e0a:	689b      	ldr	r3, [r3, #8]
 8000e0c:	69ba      	ldr	r2, [r7, #24]
 8000e0e:	3218      	adds	r2, #24
 8000e10:	605a      	str	r2, [r3, #4]
 8000e12:	69bb      	ldr	r3, [r7, #24]
 8000e14:	f103 0218 	add.w	r2, r3, #24
 8000e18:	693b      	ldr	r3, [r7, #16]
 8000e1a:	609a      	str	r2, [r3, #8]
 8000e1c:	69bb      	ldr	r3, [r7, #24]
 8000e1e:	4a11      	ldr	r2, [pc, #68]	; (8000e64 <xTaskRemoveFromEventList+0x188>)
 8000e20:	629a      	str	r2, [r3, #40]	; 0x28
 8000e22:	4b10      	ldr	r3, [pc, #64]	; (8000e64 <xTaskRemoveFromEventList+0x188>)
 8000e24:	681b      	ldr	r3, [r3, #0]
 8000e26:	3301      	adds	r3, #1
 8000e28:	4a0e      	ldr	r2, [pc, #56]	; (8000e64 <xTaskRemoveFromEventList+0x188>)
 8000e2a:	6013      	str	r3, [r2, #0]
 8000e2c:	69bb      	ldr	r3, [r7, #24]
 8000e2e:	6ada      	ldr	r2, [r3, #44]	; 0x2c
 8000e30:	4b0d      	ldr	r3, [pc, #52]	; (8000e68 <xTaskRemoveFromEventList+0x18c>)
 8000e32:	681b      	ldr	r3, [r3, #0]
 8000e34:	6adb      	ldr	r3, [r3, #44]	; 0x2c
 8000e36:	429a      	cmp	r2, r3
 8000e38:	d905      	bls.n	8000e46 <xTaskRemoveFromEventList+0x16a>
 8000e3a:	2301      	movs	r3, #1
 8000e3c:	61fb      	str	r3, [r7, #28]
 8000e3e:	4b0b      	ldr	r3, [pc, #44]	; (8000e6c <xTaskRemoveFromEventList+0x190>)
 8000e40:	2201      	movs	r2, #1
 8000e42:	601a      	str	r2, [r3, #0]
 8000e44:	e001      	b.n	8000e4a <xTaskRemoveFromEventList+0x16e>
 8000e46:	2300      	movs	r3, #0
 8000e48:	61fb      	str	r3, [r7, #28]
 8000e4a:	69fb      	ldr	r3, [r7, #28]
 8000e4c:	4618      	mov	r0, r3
 8000e4e:	3724      	adds	r7, #36	; 0x24
 8000e50:	46bd      	mov	sp, r7
 8000e52:	f85d 7b04 	ldr.w	r7, [sp], #4
 8000e56:	4770      	bx	lr
 8000e58:	20000360 	andcs	r0, r0, r0, ror #6
 8000e5c:	20000340 	andcs	r0, r0, r0, asr #6
 8000e60:	2000022c 	andcs	r0, r0, ip, lsr #4
 8000e64:	20000324 	andcs	r0, r0, r4, lsr #6
 8000e68:	20000228 	andcs	r0, r0, r8, lsr #4
 8000e6c:	2000034c 	andcs	r0, r0, ip, asr #6

08000e70 <vTaskRemoveFromUnorderedEventList>:
 8000e70:	b480      	push	{r7}
 8000e72:	b087      	sub	sp, #28
 8000e74:	af00      	add	r7, sp, #0
 8000e76:	6078      	str	r0, [r7, #4]
 8000e78:	6039      	str	r1, [r7, #0]
 8000e7a:	683b      	ldr	r3, [r7, #0]
 8000e7c:	f043 4200 	orr.w	r2, r3, #2147483648	; 0x80000000
 8000e80:	687b      	ldr	r3, [r7, #4]
 8000e82:	601a      	str	r2, [r3, #0]
 8000e84:	687b      	ldr	r3, [r7, #4]
 8000e86:	68db      	ldr	r3, [r3, #12]
 8000e88:	617b      	str	r3, [r7, #20]
 8000e8a:	687b      	ldr	r3, [r7, #4]
 8000e8c:	691b      	ldr	r3, [r3, #16]
 8000e8e:	613b      	str	r3, [r7, #16]
 8000e90:	687b      	ldr	r3, [r7, #4]
 8000e92:	685b      	ldr	r3, [r3, #4]
 8000e94:	687a      	ldr	r2, [r7, #4]
 8000e96:	6892      	ldr	r2, [r2, #8]
 8000e98:	609a      	str	r2, [r3, #8]
 8000e9a:	687b      	ldr	r3, [r7, #4]
 8000e9c:	689b      	ldr	r3, [r3, #8]
 8000e9e:	687a      	ldr	r2, [r7, #4]
 8000ea0:	6852      	ldr	r2, [r2, #4]
 8000ea2:	605a      	str	r2, [r3, #4]
 8000ea4:	693b      	ldr	r3, [r7, #16]
 8000ea6:	685b      	ldr	r3, [r3, #4]
 8000ea8:	687a      	ldr	r2, [r7, #4]
 8000eaa:	429a      	cmp	r2, r3
 8000eac:	d103      	bne.n	8000eb6 <vTaskRemoveFromUnorderedEventList+0x46>
 8000eae:	687b      	ldr	r3, [r7, #4]
 8000eb0:	689a      	ldr	r2, [r3, #8]
 8000eb2:	693b      	ldr	r3, [r7, #16]
 8000eb4:	605a      	str	r2, [r3, #4]
 8000eb6:	687b      	ldr	r3, [r7, #4]
 8000eb8:	2200      	movs	r2, #0
 8000eba:	611a      	str	r2, [r3, #16]
 8000ebc:	693b      	ldr	r3, [r7, #16]
 8000ebe:	681b      	ldr	r3, [r3, #0]
 8000ec0:	1e5a      	subs	r2, r3, #1
 8000ec2:	693b      	ldr	r3, [r7, #16]
 8000ec4:	601a      	str	r2, [r3, #0]
 8000ec6:	697b      	ldr	r3, [r7, #20]
 8000ec8:	695b      	ldr	r3, [r3, #20]
 8000eca:	60fb      	str	r3, [r7, #12]
 8000ecc:	697b      	ldr	r3, [r7, #20]
 8000ece:	689b      	ldr	r3, [r3, #8]
 8000ed0:	697a      	ldr	r2, [r7, #20]
 8000ed2:	68d2      	ldr	r2, [r2, #12]
 8000ed4:	609a      	str	r2, [r3, #8]
 8000ed6:	697b      	ldr	r3, [r7, #20]
 8000ed8:	68db      	ldr	r3, [r3, #12]
 8000eda:	697a      	ldr	r2, [r7, #20]
 8000edc:	6892      	ldr	r2, [r2, #8]
 8000ede:	605a      	str	r2, [r3, #4]
 8000ee0:	68fb      	ldr	r3, [r7, #12]
 8000ee2:	685a      	ldr	r2, [r3, #4]
 8000ee4:	697b      	ldr	r3, [r7, #20]
 8000ee6:	3304      	adds	r3, #4
 8000ee8:	429a      	cmp	r2, r3
 8000eea:	d103      	bne.n	8000ef4 <vTaskRemoveFromUnorderedEventList+0x84>
 8000eec:	697b      	ldr	r3, [r7, #20]
 8000eee:	68da      	ldr	r2, [r3, #12]
 8000ef0:	68fb      	ldr	r3, [r7, #12]
 8000ef2:	605a      	str	r2, [r3, #4]
 8000ef4:	697b      	ldr	r3, [r7, #20]
 8000ef6:	2200      	movs	r2, #0
 8000ef8:	615a      	str	r2, [r3, #20]
 8000efa:	68fb      	ldr	r3, [r7, #12]
 8000efc:	681b      	ldr	r3, [r3, #0]
 8000efe:	1e5a      	subs	r2, r3, #1
 8000f00:	68fb      	ldr	r3, [r7, #12]
 8000f02:	601a      	str	r2, [r3, #0]
 8000f04:	697b      	ldr	r3, [r7, #20]
 8000f06:	6adb      	ldr	r3, [r3, #44]	; 0x2c
 8000f08:	2201      	movs	r2, #1
 8000f0a:	409a      	lsls	r2, r3
 8000f0c:	4b26      	ldr	r3, [pc, #152]	; (8000fa8 <vTaskRemoveFromUnorderedEventList+0x138>)
 8000f0e:	681b      	ldr	r3, [r3, #0]
 8000f10:	4313      	orrs	r3, r2
 8000f12:	4a25      	ldr	r2, [pc, #148]	; (8000fa8 <vTaskRemoveFromUnorderedEventList+0x138>)
 8000f14:	6013      	str	r3, [r2, #0]
 8000f16:	697b      	ldr	r3, [r7, #20]
 8000f18:	6ada      	ldr	r2, [r3, #44]	; 0x2c
 8000f1a:	4924      	ldr	r1, [pc, #144]	; (8000fac <vTaskRemoveFromUnorderedEventList+0x13c>)
 8000f1c:	4613      	mov	r3, r2
 8000f1e:	009b      	lsls	r3, r3, #2
 8000f20:	4413      	add	r3, r2
 8000f22:	009b      	lsls	r3, r3, #2
 8000f24:	440b      	add	r3, r1
 8000f26:	3304      	adds	r3, #4
 8000f28:	681b      	ldr	r3, [r3, #0]
 8000f2a:	60bb      	str	r3, [r7, #8]
 8000f2c:	697b      	ldr	r3, [r7, #20]
 8000f2e:	68ba      	ldr	r2, [r7, #8]
 8000f30:	609a      	str	r2, [r3, #8]
 8000f32:	68bb      	ldr	r3, [r7, #8]
 8000f34:	689a      	ldr	r2, [r3, #8]
 8000f36:	697b      	ldr	r3, [r7, #20]
 8000f38:	60da      	str	r2, [r3, #12]
 8000f3a:	68bb      	ldr	r3, [r7, #8]
 8000f3c:	689b      	ldr	r3, [r3, #8]
 8000f3e:	697a      	ldr	r2, [r7, #20]
 8000f40:	3204      	adds	r2, #4
 8000f42:	605a      	str	r2, [r3, #4]
 8000f44:	697b      	ldr	r3, [r7, #20]
 8000f46:	1d1a      	adds	r2, r3, #4
 8000f48:	68bb      	ldr	r3, [r7, #8]
 8000f4a:	609a      	str	r2, [r3, #8]
 8000f4c:	697b      	ldr	r3, [r7, #20]
 8000f4e:	6ada      	ldr	r2, [r3, #44]	; 0x2c
 8000f50:	4613      	mov	r3, r2
 8000f52:	009b      	lsls	r3, r3, #2
 8000f54:	4413      	add	r3, r2
 8000f56:	009b      	lsls	r3, r3, #2
 8000f58:	4a14      	ldr	r2, [pc, #80]	; (8000fac <vTaskRemoveFromUnorderedEventList+0x13c>)
 8000f5a:	441a      	add	r2, r3
 8000f5c:	697b      	ldr	r3, [r7, #20]
 8000f5e:	615a      	str	r2, [r3, #20]
 8000f60:	697b      	ldr	r3, [r7, #20]
 8000f62:	6ada      	ldr	r2, [r3, #44]	; 0x2c
 8000f64:	4911      	ldr	r1, [pc, #68]	; (8000fac <vTaskRemoveFromUnorderedEventList+0x13c>)
 8000f66:	4613      	mov	r3, r2
 8000f68:	009b      	lsls	r3, r3, #2
 8000f6a:	4413      	add	r3, r2
 8000f6c:	009b      	lsls	r3, r3, #2
 8000f6e:	440b      	add	r3, r1
 8000f70:	681b      	ldr	r3, [r3, #0]
 8000f72:	697a      	ldr	r2, [r7, #20]
 8000f74:	6ad2      	ldr	r2, [r2, #44]	; 0x2c
 8000f76:	1c59      	adds	r1, r3, #1
 8000f78:	480c      	ldr	r0, [pc, #48]	; (8000fac <vTaskRemoveFromUnorderedEventList+0x13c>)
 8000f7a:	4613      	mov	r3, r2
 8000f7c:	009b      	lsls	r3, r3, #2
 8000f7e:	4413      	add	r3, r2
 8000f80:	009b      	lsls	r3, r3, #2
 8000f82:	4403      	add	r3, r0
 8000f84:	6019      	str	r1, [r3, #0]
 8000f86:	697b      	ldr	r3, [r7, #20]
 8000f88:	6ada      	ldr	r2, [r3, #44]	; 0x2c
 8000f8a:	4b09      	ldr	r3, [pc, #36]	; (8000fb0 <vTaskRemoveFromUnorderedEventList+0x140>)
 8000f8c:	681b      	ldr	r3, [r3, #0]
 8000f8e:	6adb      	ldr	r3, [r3, #44]	; 0x2c
 8000f90:	429a      	cmp	r2, r3
 8000f92:	d902      	bls.n	8000f9a <vTaskRemoveFromUnorderedEventList+0x12a>
 8000f94:	4b07      	ldr	r3, [pc, #28]	; (8000fb4 <vTaskRemoveFromUnorderedEventList+0x144>)
 8000f96:	2201      	movs	r2, #1
 8000f98:	601a      	str	r2, [r3, #0]
 8000f9a:	bf00      	nop
 8000f9c:	371c      	adds	r7, #28
 8000f9e:	46bd      	mov	sp, r7
 8000fa0:	f85d 7b04 	ldr.w	r7, [sp], #4
 8000fa4:	4770      	bx	lr
 8000fa6:	bf00      	nop
 8000fa8:	20000340 	andcs	r0, r0, r0, asr #6
 8000fac:	2000022c 	andcs	r0, r0, ip, lsr #4
 8000fb0:	20000228 	andcs	r0, r0, r8, lsr #4
 8000fb4:	2000034c 	andcs	r0, r0, ip, asr #6

08000fb8 <vTaskSetTimeOutState>:
 8000fb8:	b580      	push	{r7, lr}
 8000fba:	b082      	sub	sp, #8
 8000fbc:	af00      	add	r7, sp, #0
 8000fbe:	6078      	str	r0, [r7, #4]
 8000fc0:	f002 ff69 	bl	8003e96 <vPortEnterCritical>
 8000fc4:	4b06      	ldr	r3, [pc, #24]	; (8000fe0 <vTaskSetTimeOutState+0x28>)
 8000fc6:	681a      	ldr	r2, [r3, #0]
 8000fc8:	687b      	ldr	r3, [r7, #4]
 8000fca:	601a      	str	r2, [r3, #0]
 8000fcc:	4b05      	ldr	r3, [pc, #20]	; (8000fe4 <vTaskSetTimeOutState+0x2c>)
 8000fce:	681a      	ldr	r2, [r3, #0]
 8000fd0:	687b      	ldr	r3, [r7, #4]
 8000fd2:	605a      	str	r2, [r3, #4]
 8000fd4:	f002 ff7a 	bl	8003ecc <vPortExitCritical>
 8000fd8:	bf00      	nop
 8000fda:	3708      	adds	r7, #8
 8000fdc:	46bd      	mov	sp, r7
 8000fde:	bd80      	pop	{r7, pc}
 8000fe0:	20000350 	andcs	r0, r0, r0, asr r3
 8000fe4:	2000033c 	andcs	r0, r0, ip, lsr r3

08000fe8 <vTaskInternalSetTimeOutState>:
 8000fe8:	b480      	push	{r7}
 8000fea:	b083      	sub	sp, #12
 8000fec:	af00      	add	r7, sp, #0
 8000fee:	6078      	str	r0, [r7, #4]
 8000ff0:	4b06      	ldr	r3, [pc, #24]	; (800100c <vTaskInternalSetTimeOutState+0x24>)
 8000ff2:	681a      	ldr	r2, [r3, #0]
 8000ff4:	687b      	ldr	r3, [r7, #4]
 8000ff6:	601a      	str	r2, [r3, #0]
 8000ff8:	4b05      	ldr	r3, [pc, #20]	; (8001010 <vTaskInternalSetTimeOutState+0x28>)
 8000ffa:	681a      	ldr	r2, [r3, #0]
 8000ffc:	687b      	ldr	r3, [r7, #4]
 8000ffe:	605a      	str	r2, [r3, #4]
 8001000:	bf00      	nop
 8001002:	370c      	adds	r7, #12
 8001004:	46bd      	mov	sp, r7
 8001006:	f85d 7b04 	ldr.w	r7, [sp], #4
 800100a:	4770      	bx	lr
 800100c:	20000350 	andcs	r0, r0, r0, asr r3
 8001010:	2000033c 	andcs	r0, r0, ip, lsr r3

08001014 <xTaskCheckForTimeOut>:
 8001014:	b580      	push	{r7, lr}
 8001016:	b086      	sub	sp, #24
 8001018:	af00      	add	r7, sp, #0
 800101a:	6078      	str	r0, [r7, #4]
 800101c:	6039      	str	r1, [r7, #0]
 800101e:	f002 ff3a 	bl	8003e96 <vPortEnterCritical>
 8001022:	4b1b      	ldr	r3, [pc, #108]	; (8001090 <xTaskCheckForTimeOut+0x7c>)
 8001024:	681b      	ldr	r3, [r3, #0]
 8001026:	613b      	str	r3, [r7, #16]
 8001028:	687b      	ldr	r3, [r7, #4]
 800102a:	685b      	ldr	r3, [r3, #4]
 800102c:	693a      	ldr	r2, [r7, #16]
 800102e:	1ad3      	subs	r3, r2, r3
 8001030:	60fb      	str	r3, [r7, #12]
 8001032:	687b      	ldr	r3, [r7, #4]
 8001034:	681a      	ldr	r2, [r3, #0]
 8001036:	4b17      	ldr	r3, [pc, #92]	; (8001094 <xTaskCheckForTimeOut+0x80>)
 8001038:	681b      	ldr	r3, [r3, #0]
 800103a:	429a      	cmp	r2, r3
 800103c:	d00a      	beq.n	8001054 <xTaskCheckForTimeOut+0x40>
 800103e:	687b      	ldr	r3, [r7, #4]
 8001040:	685b      	ldr	r3, [r3, #4]
 8001042:	693a      	ldr	r2, [r7, #16]
 8001044:	429a      	cmp	r2, r3
 8001046:	d305      	bcc.n	8001054 <xTaskCheckForTimeOut+0x40>
 8001048:	2301      	movs	r3, #1
 800104a:	617b      	str	r3, [r7, #20]
 800104c:	683b      	ldr	r3, [r7, #0]
 800104e:	2200      	movs	r2, #0
 8001050:	601a      	str	r2, [r3, #0]
 8001052:	e015      	b.n	8001080 <xTaskCheckForTimeOut+0x6c>
 8001054:	683b      	ldr	r3, [r7, #0]
 8001056:	681b      	ldr	r3, [r3, #0]
 8001058:	68fa      	ldr	r2, [r7, #12]
 800105a:	429a      	cmp	r2, r3
 800105c:	d20b      	bcs.n	8001076 <xTaskCheckForTimeOut+0x62>
 800105e:	683b      	ldr	r3, [r7, #0]
 8001060:	681a      	ldr	r2, [r3, #0]
 8001062:	68fb      	ldr	r3, [r7, #12]
 8001064:	1ad2      	subs	r2, r2, r3
 8001066:	683b      	ldr	r3, [r7, #0]
 8001068:	601a      	str	r2, [r3, #0]
 800106a:	6878      	ldr	r0, [r7, #4]
 800106c:	f7ff ffbc 	bl	8000fe8 <vTaskInternalSetTimeOutState>
 8001070:	2300      	movs	r3, #0
 8001072:	617b      	str	r3, [r7, #20]
 8001074:	e004      	b.n	8001080 <xTaskCheckForTimeOut+0x6c>
 8001076:	683b      	ldr	r3, [r7, #0]
 8001078:	2200      	movs	r2, #0
 800107a:	601a      	str	r2, [r3, #0]
 800107c:	2301      	movs	r3, #1
 800107e:	617b      	str	r3, [r7, #20]
 8001080:	f002 ff24 	bl	8003ecc <vPortExitCritical>
 8001084:	697b      	ldr	r3, [r7, #20]
 8001086:	4618      	mov	r0, r3
 8001088:	3718      	adds	r7, #24
 800108a:	46bd      	mov	sp, r7
 800108c:	bd80      	pop	{r7, pc}
 800108e:	bf00      	nop
 8001090:	2000033c 	andcs	r0, r0, ip, lsr r3
 8001094:	20000350 	andcs	r0, r0, r0, asr r3

08001098 <vTaskMissedYield>:
 8001098:	b480      	push	{r7}
 800109a:	af00      	add	r7, sp, #0
 800109c:	4b03      	ldr	r3, [pc, #12]	; (80010ac <vTaskMissedYield+0x14>)
 800109e:	2201      	movs	r2, #1
 80010a0:	601a      	str	r2, [r3, #0]
 80010a2:	bf00      	nop
 80010a4:	46bd      	mov	sp, r7
 80010a6:	f85d 7b04 	ldr.w	r7, [sp], #4
 80010aa:	4770      	bx	lr
 80010ac:	2000034c 	andcs	r0, r0, ip, asr #6

080010b0 <prvIdleTask>:
 80010b0:	b580      	push	{r7, lr}
 80010b2:	b082      	sub	sp, #8
 80010b4:	af00      	add	r7, sp, #0
 80010b6:	6078      	str	r0, [r7, #4]
 80010b8:	f000 f848 	bl	800114c <prvCheckTasksWaitingTermination>
 80010bc:	4b06      	ldr	r3, [pc, #24]	; (80010d8 <prvIdleTask+0x28>)
 80010be:	681b      	ldr	r3, [r3, #0]
 80010c0:	2b01      	cmp	r3, #1
 80010c2:	d9f9      	bls.n	80010b8 <prvIdleTask+0x8>
 80010c4:	4b05      	ldr	r3, [pc, #20]	; (80010dc <prvIdleTask+0x2c>)
 80010c6:	f04f 5280 	mov.w	r2, #268435456	; 0x10000000
 80010ca:	601a      	str	r2, [r3, #0]
 80010cc:	f3bf 8f4f 	dsb	sy
 80010d0:	f3bf 8f6f 	isb	sy
 80010d4:	e7f0      	b.n	80010b8 <prvIdleTask+0x8>
 80010d6:	bf00      	nop
 80010d8:	2000022c 	andcs	r0, r0, ip, lsr #4
 80010dc:	e000ed04 	and	lr, r0, r4, lsl #26

080010e0 <prvInitialiseTaskLists>:
 80010e0:	b580      	push	{r7, lr}
 80010e2:	b082      	sub	sp, #8
 80010e4:	af00      	add	r7, sp, #0
 80010e6:	2300      	movs	r3, #0
 80010e8:	607b      	str	r3, [r7, #4]
 80010ea:	e00c      	b.n	8001106 <prvInitialiseTaskLists+0x26>
 80010ec:	687a      	ldr	r2, [r7, #4]
 80010ee:	4613      	mov	r3, r2
 80010f0:	009b      	lsls	r3, r3, #2
 80010f2:	4413      	add	r3, r2
 80010f4:	009b      	lsls	r3, r3, #2
 80010f6:	4a0f      	ldr	r2, [pc, #60]	; (8001134 <prvInitialiseTaskLists+0x54>)
 80010f8:	4413      	add	r3, r2
 80010fa:	4618      	mov	r0, r3
 80010fc:	f001 fbbe 	bl	800287c <vListInitialise>
 8001100:	687b      	ldr	r3, [r7, #4]
 8001102:	3301      	adds	r3, #1
 8001104:	607b      	str	r3, [r7, #4]
 8001106:	687b      	ldr	r3, [r7, #4]
 8001108:	2b09      	cmp	r3, #9
 800110a:	d9ef      	bls.n	80010ec <prvInitialiseTaskLists+0xc>
 800110c:	480a      	ldr	r0, [pc, #40]	; (8001138 <prvInitialiseTaskLists+0x58>)
 800110e:	f001 fbb5 	bl	800287c <vListInitialise>
 8001112:	480a      	ldr	r0, [pc, #40]	; (800113c <prvInitialiseTaskLists+0x5c>)
 8001114:	f001 fbb2 	bl	800287c <vListInitialise>
 8001118:	4809      	ldr	r0, [pc, #36]	; (8001140 <prvInitialiseTaskLists+0x60>)
 800111a:	f001 fbaf 	bl	800287c <vListInitialise>
 800111e:	4b09      	ldr	r3, [pc, #36]	; (8001144 <prvInitialiseTaskLists+0x64>)
 8001120:	4a05      	ldr	r2, [pc, #20]	; (8001138 <prvInitialiseTaskLists+0x58>)
 8001122:	601a      	str	r2, [r3, #0]
 8001124:	4b08      	ldr	r3, [pc, #32]	; (8001148 <prvInitialiseTaskLists+0x68>)
 8001126:	4a05      	ldr	r2, [pc, #20]	; (800113c <prvInitialiseTaskLists+0x5c>)
 8001128:	601a      	str	r2, [r3, #0]
 800112a:	bf00      	nop
 800112c:	3708      	adds	r7, #8
 800112e:	46bd      	mov	sp, r7
 8001130:	bd80      	pop	{r7, pc}
 8001132:	bf00      	nop
 8001134:	2000022c 	andcs	r0, r0, ip, lsr #4
 8001138:	200002f4 	strdcs	r0, [r0], -r4
 800113c:	20000308 	andcs	r0, r0, r8, lsl #6
 8001140:	20000324 	andcs	r0, r0, r4, lsr #6
 8001144:	2000031c 	andcs	r0, r0, ip, lsl r3
 8001148:	20000320 	andcs	r0, r0, r0, lsr #6

0800114c <prvCheckTasksWaitingTermination>:
 800114c:	b480      	push	{r7}
 800114e:	af00      	add	r7, sp, #0
 8001150:	bf00      	nop
 8001152:	46bd      	mov	sp, r7
 8001154:	f85d 7b04 	ldr.w	r7, [sp], #4
 8001158:	4770      	bx	lr

0800115a <prvResetNextTaskUnblockTime>:
 800115a:	b480      	push	{r7}
 800115c:	af00      	add	r7, sp, #0
 800115e:	4b0a      	ldr	r3, [pc, #40]	; (8001188 <prvResetNextTaskUnblockTime+0x2e>)
 8001160:	681b      	ldr	r3, [r3, #0]
 8001162:	681b      	ldr	r3, [r3, #0]
 8001164:	2b00      	cmp	r3, #0
 8001166:	d104      	bne.n	8001172 <prvResetNextTaskUnblockTime+0x18>
 8001168:	4b08      	ldr	r3, [pc, #32]	; (800118c <prvResetNextTaskUnblockTime+0x32>)
 800116a:	f04f 32ff 	mov.w	r2, #4294967295	; 0xffffffff
 800116e:	601a      	str	r2, [r3, #0]
 8001170:	e005      	b.n	800117e <prvResetNextTaskUnblockTime+0x24>
 8001172:	4b05      	ldr	r3, [pc, #20]	; (8001188 <prvResetNextTaskUnblockTime+0x2e>)
 8001174:	681b      	ldr	r3, [r3, #0]
 8001176:	68db      	ldr	r3, [r3, #12]
 8001178:	681b      	ldr	r3, [r3, #0]
 800117a:	4a04      	ldr	r2, [pc, #16]	; (800118c <prvResetNextTaskUnblockTime+0x32>)
 800117c:	6013      	str	r3, [r2, #0]
 800117e:	bf00      	nop
 8001180:	46bd      	mov	sp, r7
 8001182:	f85d 7b04 	ldr.w	r7, [sp], #4
 8001186:	4770      	bx	lr
 8001188:	2000031c 	andcs	r0, r0, ip, lsl r3
 800118c:	20000358 	andcs	r0, r0, r8, asr r3

08001190 <xTaskGetCurrentTaskHandle>:
 8001190:	b480      	push	{r7}
 8001192:	b083      	sub	sp, #12
 8001194:	af00      	add	r7, sp, #0
 8001196:	4b05      	ldr	r3, [pc, #20]	; (80011ac <xTaskGetCurrentTaskHandle+0x1c>)
 8001198:	681b      	ldr	r3, [r3, #0]
 800119a:	607b      	str	r3, [r7, #4]
 800119c:	687b      	ldr	r3, [r7, #4]
 800119e:	4618      	mov	r0, r3
 80011a0:	370c      	adds	r7, #12
 80011a2:	46bd      	mov	sp, r7
 80011a4:	f85d 7b04 	ldr.w	r7, [sp], #4
 80011a8:	4770      	bx	lr
 80011aa:	bf00      	nop
 80011ac:	20000228 	andcs	r0, r0, r8, lsr #4

080011b0 <xTaskGetCurrentTaskHandleForCore>:
 80011b0:	b480      	push	{r7}
 80011b2:	b085      	sub	sp, #20
 80011b4:	af00      	add	r7, sp, #0
 80011b6:	6078      	str	r0, [r7, #4]
 80011b8:	2300      	movs	r3, #0
 80011ba:	60fb      	str	r3, [r7, #12]
 80011bc:	687b      	ldr	r3, [r7, #4]
 80011be:	2b00      	cmp	r3, #0
 80011c0:	db05      	blt.n	80011ce <xTaskGetCurrentTaskHandleForCore+0x1e>
 80011c2:	687b      	ldr	r3, [r7, #4]
 80011c4:	2b00      	cmp	r3, #0
 80011c6:	dc02      	bgt.n	80011ce <xTaskGetCurrentTaskHandleForCore+0x1e>
 80011c8:	4b04      	ldr	r3, [pc, #16]	; (80011dc <xTaskGetCurrentTaskHandleForCore+0x2c>)
 80011ca:	681b      	ldr	r3, [r3, #0]
 80011cc:	60fb      	str	r3, [r7, #12]
 80011ce:	68fb      	ldr	r3, [r7, #12]
 80011d0:	4618      	mov	r0, r3
 80011d2:	3714      	adds	r7, #20
 80011d4:	46bd      	mov	sp, r7
 80011d6:	f85d 7b04 	ldr.w	r7, [sp], #4
 80011da:	4770      	bx	lr
 80011dc:	20000228 	andcs	r0, r0, r8, lsr #4

080011e0 <uxTaskResetEventItemValue>:
 80011e0:	b480      	push	{r7}
 80011e2:	b083      	sub	sp, #12
 80011e4:	af00      	add	r7, sp, #0
 80011e6:	4b09      	ldr	r3, [pc, #36]	; (800120c <uxTaskResetEventItemValue+0x2c>)
 80011e8:	681b      	ldr	r3, [r3, #0]
 80011ea:	699b      	ldr	r3, [r3, #24]
 80011ec:	607b      	str	r3, [r7, #4]
 80011ee:	4b07      	ldr	r3, [pc, #28]	; (800120c <uxTaskResetEventItemValue+0x2c>)
 80011f0:	681b      	ldr	r3, [r3, #0]
 80011f2:	6ada      	ldr	r2, [r3, #44]	; 0x2c
 80011f4:	4b05      	ldr	r3, [pc, #20]	; (800120c <uxTaskResetEventItemValue+0x2c>)
 80011f6:	681b      	ldr	r3, [r3, #0]
 80011f8:	f1c2 020a 	rsb	r2, r2, #10
 80011fc:	619a      	str	r2, [r3, #24]
 80011fe:	687b      	ldr	r3, [r7, #4]
 8001200:	4618      	mov	r0, r3
 8001202:	370c      	adds	r7, #12
 8001204:	46bd      	mov	sp, r7
 8001206:	f85d 7b04 	ldr.w	r7, [sp], #4
 800120a:	4770      	bx	lr
 800120c:	20000228 	andcs	r0, r0, r8, lsr #4

08001210 <ulTaskGenericNotifyTake>:
 8001210:	b580      	push	{r7, lr}
 8001212:	b088      	sub	sp, #32
 8001214:	af00      	add	r7, sp, #0
 8001216:	60f8      	str	r0, [r7, #12]
 8001218:	60b9      	str	r1, [r7, #8]
 800121a:	607a      	str	r2, [r7, #4]
 800121c:	2300      	movs	r3, #0
 800121e:	61fb      	str	r3, [r7, #28]
 8001220:	4b35      	ldr	r3, [pc, #212]	; (80012f8 <ulTaskGenericNotifyTake+0xe8>)
 8001222:	681a      	ldr	r2, [r3, #0]
 8001224:	68fb      	ldr	r3, [r7, #12]
 8001226:	3310      	adds	r3, #16
 8001228:	009b      	lsls	r3, r3, #2
 800122a:	4413      	add	r3, r2
 800122c:	685b      	ldr	r3, [r3, #4]
 800122e:	2b00      	cmp	r3, #0
 8001230:	d132      	bne.n	8001298 <ulTaskGenericNotifyTake+0x88>
 8001232:	687b      	ldr	r3, [r7, #4]
 8001234:	2b00      	cmp	r3, #0
 8001236:	d02f      	beq.n	8001298 <ulTaskGenericNotifyTake+0x88>
 8001238:	f7ff fa1e 	bl	8000678 <vTaskSuspendAll>
 800123c:	f002 fe2b 	bl	8003e96 <vPortEnterCritical>
 8001240:	4b2d      	ldr	r3, [pc, #180]	; (80012f8 <ulTaskGenericNotifyTake+0xe8>)
 8001242:	681a      	ldr	r2, [r3, #0]
 8001244:	68fb      	ldr	r3, [r7, #12]
 8001246:	3310      	adds	r3, #16
 8001248:	009b      	lsls	r3, r3, #2
 800124a:	4413      	add	r3, r2
 800124c:	685b      	ldr	r3, [r3, #4]
 800124e:	2b00      	cmp	r3, #0
 8001250:	d108      	bne.n	8001264 <ulTaskGenericNotifyTake+0x54>
 8001252:	4b29      	ldr	r3, [pc, #164]	; (80012f8 <ulTaskGenericNotifyTake+0xe8>)
 8001254:	681a      	ldr	r2, [r3, #0]
 8001256:	68fb      	ldr	r3, [r7, #12]
 8001258:	4413      	add	r3, r2
 800125a:	3348      	adds	r3, #72	; 0x48
 800125c:	2201      	movs	r2, #1
 800125e:	701a      	strb	r2, [r3, #0]
 8001260:	2301      	movs	r3, #1
 8001262:	61fb      	str	r3, [r7, #28]
 8001264:	f002 fe32 	bl	8003ecc <vPortExitCritical>
 8001268:	69fb      	ldr	r3, [r7, #28]
 800126a:	2b01      	cmp	r3, #1
 800126c:	d103      	bne.n	8001276 <ulTaskGenericNotifyTake+0x66>
 800126e:	2101      	movs	r1, #1
 8001270:	6878      	ldr	r0, [r7, #4]
 8001272:	f000 fc21 	bl	8001ab8 <prvAddCurrentTaskToDelayedList>
 8001276:	f7ff fa0d 	bl	8000694 <xTaskResumeAll>
 800127a:	61b8      	str	r0, [r7, #24]
 800127c:	69fb      	ldr	r3, [r7, #28]
 800127e:	2b01      	cmp	r3, #1
 8001280:	d10a      	bne.n	8001298 <ulTaskGenericNotifyTake+0x88>
 8001282:	69bb      	ldr	r3, [r7, #24]
 8001284:	2b00      	cmp	r3, #0
 8001286:	d107      	bne.n	8001298 <ulTaskGenericNotifyTake+0x88>
 8001288:	4b1c      	ldr	r3, [pc, #112]	; (80012fc <ulTaskGenericNotifyTake+0xec>)
 800128a:	f04f 5280 	mov.w	r2, #268435456	; 0x10000000
 800128e:	601a      	str	r2, [r3, #0]
 8001290:	f3bf 8f4f 	dsb	sy
 8001294:	f3bf 8f6f 	isb	sy
 8001298:	f002 fdfd 	bl	8003e96 <vPortEnterCritical>
 800129c:	4b16      	ldr	r3, [pc, #88]	; (80012f8 <ulTaskGenericNotifyTake+0xe8>)
 800129e:	681a      	ldr	r2, [r3, #0]
 80012a0:	68fb      	ldr	r3, [r7, #12]
 80012a2:	3310      	adds	r3, #16
 80012a4:	009b      	lsls	r3, r3, #2
 80012a6:	4413      	add	r3, r2
 80012a8:	685b      	ldr	r3, [r3, #4]
 80012aa:	617b      	str	r3, [r7, #20]
 80012ac:	697b      	ldr	r3, [r7, #20]
 80012ae:	2b00      	cmp	r3, #0
 80012b0:	d014      	beq.n	80012dc <ulTaskGenericNotifyTake+0xcc>
 80012b2:	68bb      	ldr	r3, [r7, #8]
 80012b4:	2b00      	cmp	r3, #0
 80012b6:	d008      	beq.n	80012ca <ulTaskGenericNotifyTake+0xba>
 80012b8:	4b0f      	ldr	r3, [pc, #60]	; (80012f8 <ulTaskGenericNotifyTake+0xe8>)
 80012ba:	681a      	ldr	r2, [r3, #0]
 80012bc:	68fb      	ldr	r3, [r7, #12]
 80012be:	3310      	adds	r3, #16
 80012c0:	009b      	lsls	r3, r3, #2
 80012c2:	4413      	add	r3, r2
 80012c4:	2200      	movs	r2, #0
 80012c6:	605a      	str	r2, [r3, #4]
 80012c8:	e008      	b.n	80012dc <ulTaskGenericNotifyTake+0xcc>
 80012ca:	4b0b      	ldr	r3, [pc, #44]	; (80012f8 <ulTaskGenericNotifyTake+0xe8>)
 80012cc:	6819      	ldr	r1, [r3, #0]
 80012ce:	697b      	ldr	r3, [r7, #20]
 80012d0:	1e5a      	subs	r2, r3, #1
 80012d2:	68fb      	ldr	r3, [r7, #12]
 80012d4:	3310      	adds	r3, #16
 80012d6:	009b      	lsls	r3, r3, #2
 80012d8:	440b      	add	r3, r1
 80012da:	605a      	str	r2, [r3, #4]
 80012dc:	4b06      	ldr	r3, [pc, #24]	; (80012f8 <ulTaskGenericNotifyTake+0xe8>)
 80012de:	681a      	ldr	r2, [r3, #0]
 80012e0:	68fb      	ldr	r3, [r7, #12]
 80012e2:	4413      	add	r3, r2
 80012e4:	3348      	adds	r3, #72	; 0x48
 80012e6:	2200      	movs	r2, #0
 80012e8:	701a      	strb	r2, [r3, #0]
 80012ea:	f002 fdef 	bl	8003ecc <vPortExitCritical>
 80012ee:	697b      	ldr	r3, [r7, #20]
 80012f0:	4618      	mov	r0, r3
 80012f2:	3720      	adds	r7, #32
 80012f4:	46bd      	mov	sp, r7
 80012f6:	bd80      	pop	{r7, pc}
 80012f8:	20000228 	andcs	r0, r0, r8, lsr #4
 80012fc:	e000ed04 	and	lr, r0, r4, lsl #26

08001300 <xTaskGenericNotifyWait>:
 8001300:	b580      	push	{r7, lr}
 8001302:	b088      	sub	sp, #32
 8001304:	af00      	add	r7, sp, #0
 8001306:	60f8      	str	r0, [r7, #12]
 8001308:	60b9      	str	r1, [r7, #8]
 800130a:	607a      	str	r2, [r7, #4]
 800130c:	603b      	str	r3, [r7, #0]
 800130e:	2300      	movs	r3, #0
 8001310:	61bb      	str	r3, [r7, #24]
 8001312:	4b42      	ldr	r3, [pc, #264]	; (800141c <xTaskGenericNotifyWait+0x11c>)
 8001314:	681a      	ldr	r2, [r3, #0]
 8001316:	68fb      	ldr	r3, [r7, #12]
 8001318:	4413      	add	r3, r2
 800131a:	3348      	adds	r3, #72	; 0x48
 800131c:	781b      	ldrb	r3, [r3, #0]
 800131e:	b2db      	uxtb	r3, r3
 8001320:	2b02      	cmp	r3, #2
 8001322:	d041      	beq.n	80013a8 <xTaskGenericNotifyWait+0xa8>
 8001324:	6abb      	ldr	r3, [r7, #40]	; 0x28
 8001326:	2b00      	cmp	r3, #0
 8001328:	d03e      	beq.n	80013a8 <xTaskGenericNotifyWait+0xa8>
 800132a:	f7ff f9a5 	bl	8000678 <vTaskSuspendAll>
 800132e:	f002 fdb2 	bl	8003e96 <vPortEnterCritical>
 8001332:	4b3a      	ldr	r3, [pc, #232]	; (800141c <xTaskGenericNotifyWait+0x11c>)
 8001334:	681a      	ldr	r2, [r3, #0]
 8001336:	68fb      	ldr	r3, [r7, #12]
 8001338:	4413      	add	r3, r2
 800133a:	3348      	adds	r3, #72	; 0x48
 800133c:	781b      	ldrb	r3, [r3, #0]
 800133e:	b2db      	uxtb	r3, r3
 8001340:	2b02      	cmp	r3, #2
 8001342:	d017      	beq.n	8001374 <xTaskGenericNotifyWait+0x74>
 8001344:	4b35      	ldr	r3, [pc, #212]	; (800141c <xTaskGenericNotifyWait+0x11c>)
 8001346:	681a      	ldr	r2, [r3, #0]
 8001348:	68fb      	ldr	r3, [r7, #12]
 800134a:	3310      	adds	r3, #16
 800134c:	009b      	lsls	r3, r3, #2
 800134e:	4413      	add	r3, r2
 8001350:	6859      	ldr	r1, [r3, #4]
 8001352:	68bb      	ldr	r3, [r7, #8]
 8001354:	43db      	mvns	r3, r3
 8001356:	4019      	ands	r1, r3
 8001358:	68fb      	ldr	r3, [r7, #12]
 800135a:	3310      	adds	r3, #16
 800135c:	009b      	lsls	r3, r3, #2
 800135e:	4413      	add	r3, r2
 8001360:	6059      	str	r1, [r3, #4]
 8001362:	4b2e      	ldr	r3, [pc, #184]	; (800141c <xTaskGenericNotifyWait+0x11c>)
 8001364:	681a      	ldr	r2, [r3, #0]
 8001366:	68fb      	ldr	r3, [r7, #12]
 8001368:	4413      	add	r3, r2
 800136a:	3348      	adds	r3, #72	; 0x48
 800136c:	2201      	movs	r2, #1
 800136e:	701a      	strb	r2, [r3, #0]
 8001370:	2301      	movs	r3, #1
 8001372:	61bb      	str	r3, [r7, #24]
 8001374:	f002 fdaa 	bl	8003ecc <vPortExitCritical>
 8001378:	69bb      	ldr	r3, [r7, #24]
 800137a:	2b01      	cmp	r3, #1
 800137c:	d103      	bne.n	8001386 <xTaskGenericNotifyWait+0x86>
 800137e:	2101      	movs	r1, #1
 8001380:	6ab8      	ldr	r0, [r7, #40]	; 0x28
 8001382:	f000 fb99 	bl	8001ab8 <prvAddCurrentTaskToDelayedList>
 8001386:	f7ff f985 	bl	8000694 <xTaskResumeAll>
 800138a:	6178      	str	r0, [r7, #20]
 800138c:	69bb      	ldr	r3, [r7, #24]
 800138e:	2b01      	cmp	r3, #1
 8001390:	d10a      	bne.n	80013a8 <xTaskGenericNotifyWait+0xa8>
 8001392:	697b      	ldr	r3, [r7, #20]
 8001394:	2b00      	cmp	r3, #0
 8001396:	d107      	bne.n	80013a8 <xTaskGenericNotifyWait+0xa8>
 8001398:	4b21      	ldr	r3, [pc, #132]	; (8001420 <xTaskGenericNotifyWait+0x120>)
 800139a:	f04f 5280 	mov.w	r2, #268435456	; 0x10000000
 800139e:	601a      	str	r2, [r3, #0]
 80013a0:	f3bf 8f4f 	dsb	sy
 80013a4:	f3bf 8f6f 	isb	sy
 80013a8:	f002 fd75 	bl	8003e96 <vPortEnterCritical>
 80013ac:	683b      	ldr	r3, [r7, #0]
 80013ae:	2b00      	cmp	r3, #0
 80013b0:	d008      	beq.n	80013c4 <xTaskGenericNotifyWait+0xc4>
 80013b2:	4b1a      	ldr	r3, [pc, #104]	; (800141c <xTaskGenericNotifyWait+0x11c>)
 80013b4:	681a      	ldr	r2, [r3, #0]
 80013b6:	68fb      	ldr	r3, [r7, #12]
 80013b8:	3310      	adds	r3, #16
 80013ba:	009b      	lsls	r3, r3, #2
 80013bc:	4413      	add	r3, r2
 80013be:	685a      	ldr	r2, [r3, #4]
 80013c0:	683b      	ldr	r3, [r7, #0]
 80013c2:	601a      	str	r2, [r3, #0]
 80013c4:	4b15      	ldr	r3, [pc, #84]	; (800141c <xTaskGenericNotifyWait+0x11c>)
 80013c6:	681a      	ldr	r2, [r3, #0]
 80013c8:	68fb      	ldr	r3, [r7, #12]
 80013ca:	4413      	add	r3, r2
 80013cc:	3348      	adds	r3, #72	; 0x48
 80013ce:	781b      	ldrb	r3, [r3, #0]
 80013d0:	b2db      	uxtb	r3, r3
 80013d2:	2b02      	cmp	r3, #2
 80013d4:	d002      	beq.n	80013dc <xTaskGenericNotifyWait+0xdc>
 80013d6:	2300      	movs	r3, #0
 80013d8:	61fb      	str	r3, [r7, #28]
 80013da:	e010      	b.n	80013fe <xTaskGenericNotifyWait+0xfe>
 80013dc:	4b0f      	ldr	r3, [pc, #60]	; (800141c <xTaskGenericNotifyWait+0x11c>)
 80013de:	681a      	ldr	r2, [r3, #0]
 80013e0:	68fb      	ldr	r3, [r7, #12]
 80013e2:	3310      	adds	r3, #16
 80013e4:	009b      	lsls	r3, r3, #2
 80013e6:	4413      	add	r3, r2
 80013e8:	6859      	ldr	r1, [r3, #4]
 80013ea:	687b      	ldr	r3, [r7, #4]
 80013ec:	43db      	mvns	r3, r3
 80013ee:	4019      	ands	r1, r3
 80013f0:	68fb      	ldr	r3, [r7, #12]
 80013f2:	3310      	adds	r3, #16
 80013f4:	009b      	lsls	r3, r3, #2
 80013f6:	4413      	add	r3, r2
 80013f8:	6059      	str	r1, [r3, #4]
 80013fa:	2301      	movs	r3, #1
 80013fc:	61fb      	str	r3, [r7, #28]
 80013fe:	4b07      	ldr	r3, [pc, #28]	; (800141c <xTaskGenericNotifyWait+0x11c>)
 8001400:	681a      	ldr	r2, [r3, #0]
 8001402:	68fb      	ldr	r3, [r7, #12]
 8001404:	4413      	add	r3, r2
 8001406:	3348      	adds	r3, #72	; 0x48
 8001408:	2200      	movs	r2, #0
 800140a:	701a      	strb	r2, [r3, #0]
 800140c:	f002 fd5e 	bl	8003ecc <vPortExitCritical>
 8001410:	69fb      	ldr	r3, [r7, #28]
 8001412:	4618      	mov	r0, r3
 8001414:	3720      	adds	r7, #32
 8001416:	46bd      	mov	sp, r7
 8001418:	bd80      	pop	{r7, pc}
 800141a:	bf00      	nop
 800141c:	20000228 	andcs	r0, r0, r8, lsr #4
 8001420:	e000ed04 	and	lr, r0, r4, lsl #26

08001424 <xTaskGenericNotify>:
 8001424:	b580      	push	{r7, lr}
 8001426:	b08a      	sub	sp, #40	; 0x28
 8001428:	af00      	add	r7, sp, #0
 800142a:	60f8      	str	r0, [r7, #12]
 800142c:	60b9      	str	r1, [r7, #8]
 800142e:	607a      	str	r2, [r7, #4]
 8001430:	70fb      	strb	r3, [r7, #3]
 8001432:	2301      	movs	r3, #1
 8001434:	627b      	str	r3, [r7, #36]	; 0x24
 8001436:	68fb      	ldr	r3, [r7, #12]
 8001438:	623b      	str	r3, [r7, #32]
 800143a:	f002 fd2c 	bl	8003e96 <vPortEnterCritical>
 800143e:	6b3b      	ldr	r3, [r7, #48]	; 0x30
 8001440:	2b00      	cmp	r3, #0
 8001442:	d007      	beq.n	8001454 <xTaskGenericNotify+0x30>
 8001444:	6a3a      	ldr	r2, [r7, #32]
 8001446:	68bb      	ldr	r3, [r7, #8]
 8001448:	3310      	adds	r3, #16
 800144a:	009b      	lsls	r3, r3, #2
 800144c:	4413      	add	r3, r2
 800144e:	685a      	ldr	r2, [r3, #4]
 8001450:	6b3b      	ldr	r3, [r7, #48]	; 0x30
 8001452:	601a      	str	r2, [r3, #0]
 8001454:	6a3a      	ldr	r2, [r7, #32]
 8001456:	68bb      	ldr	r3, [r7, #8]
 8001458:	4413      	add	r3, r2
 800145a:	3348      	adds	r3, #72	; 0x48
 800145c:	781b      	ldrb	r3, [r3, #0]
 800145e:	77fb      	strb	r3, [r7, #31]
 8001460:	6a3a      	ldr	r2, [r7, #32]
 8001462:	68bb      	ldr	r3, [r7, #8]
 8001464:	4413      	add	r3, r2
 8001466:	3348      	adds	r3, #72	; 0x48
 8001468:	2202      	movs	r2, #2
 800146a:	701a      	strb	r2, [r3, #0]
 800146c:	78fb      	ldrb	r3, [r7, #3]
 800146e:	2b04      	cmp	r3, #4
 8001470:	d83f      	bhi.n	80014f2 <xTaskGenericNotify+0xce>
 8001472:	a201      	add	r2, pc, #4	; (adr r2, 8001478 <xTaskGenericNotify+0x54>)
 8001474:	f852 f023 	ldr.w	pc, [r2, r3, lsl #2]
 8001478:	080014f3 	stmdaeq	r0, {r0, r1, r4, r5, r6, r7, sl, ip}
 800147c:	0800148d 	stmdaeq	r0, {r0, r2, r3, r7, sl, ip}
 8001480:	080014ab 	stmdaeq	r0, {r0, r1, r3, r5, r7, sl, ip}
 8001484:	080014c7 	stmdaeq	r0, {r0, r1, r2, r6, r7, sl, ip}
 8001488:	080014d7 	stmdaeq	r0, {r0, r1, r2, r4, r6, r7, sl, ip}
 800148c:	6a3a      	ldr	r2, [r7, #32]
 800148e:	68bb      	ldr	r3, [r7, #8]
 8001490:	3310      	adds	r3, #16
 8001492:	009b      	lsls	r3, r3, #2
 8001494:	4413      	add	r3, r2
 8001496:	685a      	ldr	r2, [r3, #4]
 8001498:	687b      	ldr	r3, [r7, #4]
 800149a:	431a      	orrs	r2, r3
 800149c:	6a39      	ldr	r1, [r7, #32]
 800149e:	68bb      	ldr	r3, [r7, #8]
 80014a0:	3310      	adds	r3, #16
 80014a2:	009b      	lsls	r3, r3, #2
 80014a4:	440b      	add	r3, r1
 80014a6:	605a      	str	r2, [r3, #4]
 80014a8:	e024      	b.n	80014f4 <xTaskGenericNotify+0xd0>
 80014aa:	6a3a      	ldr	r2, [r7, #32]
 80014ac:	68bb      	ldr	r3, [r7, #8]
 80014ae:	3310      	adds	r3, #16
 80014b0:	009b      	lsls	r3, r3, #2
 80014b2:	4413      	add	r3, r2
 80014b4:	685b      	ldr	r3, [r3, #4]
 80014b6:	1c5a      	adds	r2, r3, #1
 80014b8:	6a39      	ldr	r1, [r7, #32]
 80014ba:	68bb      	ldr	r3, [r7, #8]
 80014bc:	3310      	adds	r3, #16
 80014be:	009b      	lsls	r3, r3, #2
 80014c0:	440b      	add	r3, r1
 80014c2:	605a      	str	r2, [r3, #4]
 80014c4:	e016      	b.n	80014f4 <xTaskGenericNotify+0xd0>
 80014c6:	6a3a      	ldr	r2, [r7, #32]
 80014c8:	68bb      	ldr	r3, [r7, #8]
 80014ca:	3310      	adds	r3, #16
 80014cc:	009b      	lsls	r3, r3, #2
 80014ce:	4413      	add	r3, r2
 80014d0:	687a      	ldr	r2, [r7, #4]
 80014d2:	605a      	str	r2, [r3, #4]
 80014d4:	e00e      	b.n	80014f4 <xTaskGenericNotify+0xd0>
 80014d6:	7ffb      	ldrb	r3, [r7, #31]
 80014d8:	2b02      	cmp	r3, #2
 80014da:	d007      	beq.n	80014ec <xTaskGenericNotify+0xc8>
 80014dc:	6a3a      	ldr	r2, [r7, #32]
 80014de:	68bb      	ldr	r3, [r7, #8]
 80014e0:	3310      	adds	r3, #16
 80014e2:	009b      	lsls	r3, r3, #2
 80014e4:	4413      	add	r3, r2
 80014e6:	687a      	ldr	r2, [r7, #4]
 80014e8:	605a      	str	r2, [r3, #4]
 80014ea:	e003      	b.n	80014f4 <xTaskGenericNotify+0xd0>
 80014ec:	2300      	movs	r3, #0
 80014ee:	627b      	str	r3, [r7, #36]	; 0x24
 80014f0:	e000      	b.n	80014f4 <xTaskGenericNotify+0xd0>
 80014f2:	bf00      	nop
 80014f4:	7ffb      	ldrb	r3, [r7, #31]
 80014f6:	2b01      	cmp	r3, #1
 80014f8:	d16e      	bne.n	80015d8 <xTaskGenericNotify+0x1b4>
 80014fa:	6a3b      	ldr	r3, [r7, #32]
 80014fc:	695b      	ldr	r3, [r3, #20]
 80014fe:	61bb      	str	r3, [r7, #24]
 8001500:	6a3b      	ldr	r3, [r7, #32]
 8001502:	689b      	ldr	r3, [r3, #8]
 8001504:	6a3a      	ldr	r2, [r7, #32]
 8001506:	68d2      	ldr	r2, [r2, #12]
 8001508:	609a      	str	r2, [r3, #8]
 800150a:	6a3b      	ldr	r3, [r7, #32]
 800150c:	68db      	ldr	r3, [r3, #12]
 800150e:	6a3a      	ldr	r2, [r7, #32]
 8001510:	6892      	ldr	r2, [r2, #8]
 8001512:	605a      	str	r2, [r3, #4]
 8001514:	69bb      	ldr	r3, [r7, #24]
 8001516:	685a      	ldr	r2, [r3, #4]
 8001518:	6a3b      	ldr	r3, [r7, #32]
 800151a:	3304      	adds	r3, #4
 800151c:	429a      	cmp	r2, r3
 800151e:	d103      	bne.n	8001528 <xTaskGenericNotify+0x104>
 8001520:	6a3b      	ldr	r3, [r7, #32]
 8001522:	68da      	ldr	r2, [r3, #12]
 8001524:	69bb      	ldr	r3, [r7, #24]
 8001526:	605a      	str	r2, [r3, #4]
 8001528:	6a3b      	ldr	r3, [r7, #32]
 800152a:	2200      	movs	r2, #0
 800152c:	615a      	str	r2, [r3, #20]
 800152e:	69bb      	ldr	r3, [r7, #24]
 8001530:	681b      	ldr	r3, [r3, #0]
 8001532:	1e5a      	subs	r2, r3, #1
 8001534:	69bb      	ldr	r3, [r7, #24]
 8001536:	601a      	str	r2, [r3, #0]
 8001538:	6a3b      	ldr	r3, [r7, #32]
 800153a:	6adb      	ldr	r3, [r3, #44]	; 0x2c
 800153c:	2201      	movs	r2, #1
 800153e:	409a      	lsls	r2, r3
 8001540:	4b29      	ldr	r3, [pc, #164]	; (80015e8 <xTaskGenericNotify+0x1c4>)
 8001542:	681b      	ldr	r3, [r3, #0]
 8001544:	4313      	orrs	r3, r2
 8001546:	4a28      	ldr	r2, [pc, #160]	; (80015e8 <xTaskGenericNotify+0x1c4>)
 8001548:	6013      	str	r3, [r2, #0]
 800154a:	6a3b      	ldr	r3, [r7, #32]
 800154c:	6ada      	ldr	r2, [r3, #44]	; 0x2c
 800154e:	4927      	ldr	r1, [pc, #156]	; (80015ec <xTaskGenericNotify+0x1c8>)
 8001550:	4613      	mov	r3, r2
 8001552:	009b      	lsls	r3, r3, #2
 8001554:	4413      	add	r3, r2
 8001556:	009b      	lsls	r3, r3, #2
 8001558:	440b      	add	r3, r1
 800155a:	3304      	adds	r3, #4
 800155c:	681b      	ldr	r3, [r3, #0]
 800155e:	617b      	str	r3, [r7, #20]
 8001560:	6a3b      	ldr	r3, [r7, #32]
 8001562:	697a      	ldr	r2, [r7, #20]
 8001564:	609a      	str	r2, [r3, #8]
 8001566:	697b      	ldr	r3, [r7, #20]
 8001568:	689a      	ldr	r2, [r3, #8]
 800156a:	6a3b      	ldr	r3, [r7, #32]
 800156c:	60da      	str	r2, [r3, #12]
 800156e:	697b      	ldr	r3, [r7, #20]
 8001570:	689b      	ldr	r3, [r3, #8]
 8001572:	6a3a      	ldr	r2, [r7, #32]
 8001574:	3204      	adds	r2, #4
 8001576:	605a      	str	r2, [r3, #4]
 8001578:	6a3b      	ldr	r3, [r7, #32]
 800157a:	1d1a      	adds	r2, r3, #4
 800157c:	697b      	ldr	r3, [r7, #20]
 800157e:	609a      	str	r2, [r3, #8]
 8001580:	6a3b      	ldr	r3, [r7, #32]
 8001582:	6ada      	ldr	r2, [r3, #44]	; 0x2c
 8001584:	4613      	mov	r3, r2
 8001586:	009b      	lsls	r3, r3, #2
 8001588:	4413      	add	r3, r2
 800158a:	009b      	lsls	r3, r3, #2
 800158c:	4a17      	ldr	r2, [pc, #92]	; (80015ec <xTaskGenericNotify+0x1c8>)
 800158e:	441a      	add	r2, r3
 8001590:	6a3b      	ldr	r3, [r7, #32]
 8001592:	615a      	str	r2, [r3, #20]
 8001594:	6a3b      	ldr	r3, [r7, #32]
 8001596:	6ada      	ldr	r2, [r3, #44]	; 0x2c
 8001598:	4914      	ldr	r1, [pc, #80]	; (80015ec <xTaskGenericNotify+0x1c8>)
 800159a:	4613      	mov	r3, r2
 800159c:	009b      	lsls	r3, r3, #2
 800159e:	4413      	add	r3, r2
 80015a0:	009b      	lsls	r3, r3, #2
 80015a2:	440b      	add	r3, r1
 80015a4:	681b      	ldr	r3, [r3, #0]
 80015a6:	6a3a      	ldr	r2, [r7, #32]
 80015a8:	6ad2      	ldr	r2, [r2, #44]	; 0x2c
 80015aa:	1c59      	adds	r1, r3, #1
 80015ac:	480f      	ldr	r0, [pc, #60]	; (80015ec <xTaskGenericNotify+0x1c8>)
 80015ae:	4613      	mov	r3, r2
 80015b0:	009b      	lsls	r3, r3, #2
 80015b2:	4413      	add	r3, r2
 80015b4:	009b      	lsls	r3, r3, #2
 80015b6:	4403      	add	r3, r0
 80015b8:	6019      	str	r1, [r3, #0]
 80015ba:	4b0d      	ldr	r3, [pc, #52]	; (80015f0 <xTaskGenericNotify+0x1cc>)
 80015bc:	681b      	ldr	r3, [r3, #0]
 80015be:	6ada      	ldr	r2, [r3, #44]	; 0x2c
 80015c0:	6a3b      	ldr	r3, [r7, #32]
 80015c2:	6adb      	ldr	r3, [r3, #44]	; 0x2c
 80015c4:	429a      	cmp	r2, r3
 80015c6:	d207      	bcs.n	80015d8 <xTaskGenericNotify+0x1b4>
 80015c8:	4b0a      	ldr	r3, [pc, #40]	; (80015f4 <xTaskGenericNotify+0x1d0>)
 80015ca:	f04f 5280 	mov.w	r2, #268435456	; 0x10000000
 80015ce:	601a      	str	r2, [r3, #0]
 80015d0:	f3bf 8f4f 	dsb	sy
 80015d4:	f3bf 8f6f 	isb	sy
 80015d8:	f002 fc78 	bl	8003ecc <vPortExitCritical>
 80015dc:	6a7b      	ldr	r3, [r7, #36]	; 0x24
 80015de:	4618      	mov	r0, r3
 80015e0:	3728      	adds	r7, #40	; 0x28
 80015e2:	46bd      	mov	sp, r7
 80015e4:	bd80      	pop	{r7, pc}
 80015e6:	bf00      	nop
 80015e8:	20000340 	andcs	r0, r0, r0, asr #6
 80015ec:	2000022c 	andcs	r0, r0, ip, lsr #4
 80015f0:	20000228 	andcs	r0, r0, r8, lsr #4
 80015f4:	e000ed04 	and	lr, r0, r4, lsl #26

080015f8 <xTaskGenericNotifyFromISR>:
 80015f8:	b480      	push	{r7}
 80015fa:	b08f      	sub	sp, #60	; 0x3c
 80015fc:	af00      	add	r7, sp, #0
 80015fe:	60f8      	str	r0, [r7, #12]
 8001600:	60b9      	str	r1, [r7, #8]
 8001602:	607a      	str	r2, [r7, #4]
 8001604:	70fb      	strb	r3, [r7, #3]
 8001606:	2301      	movs	r3, #1
 8001608:	637b      	str	r3, [r7, #52]	; 0x34
 800160a:	68fb      	ldr	r3, [r7, #12]
 800160c:	633b      	str	r3, [r7, #48]	; 0x30
 800160e:	f3ef 8211 	mrs	r2, BASEPRI
 8001612:	f04f 0350 	mov.w	r3, #80	; 0x50
 8001616:	f383 8811 	msr	BASEPRI, r3
 800161a:	f3bf 8f6f 	isb	sy
 800161e:	f3bf 8f4f 	dsb	sy
 8001622:	61ba      	str	r2, [r7, #24]
 8001624:	617b      	str	r3, [r7, #20]
 8001626:	69bb      	ldr	r3, [r7, #24]
 8001628:	62fb      	str	r3, [r7, #44]	; 0x2c
 800162a:	6c3b      	ldr	r3, [r7, #64]	; 0x40
 800162c:	2b00      	cmp	r3, #0
 800162e:	d007      	beq.n	8001640 <xTaskGenericNotifyFromISR+0x48>
 8001630:	6b3a      	ldr	r2, [r7, #48]	; 0x30
 8001632:	68bb      	ldr	r3, [r7, #8]
 8001634:	3310      	adds	r3, #16
 8001636:	009b      	lsls	r3, r3, #2
 8001638:	4413      	add	r3, r2
 800163a:	685a      	ldr	r2, [r3, #4]
 800163c:	6c3b      	ldr	r3, [r7, #64]	; 0x40
 800163e:	601a      	str	r2, [r3, #0]
 8001640:	6b3a      	ldr	r2, [r7, #48]	; 0x30
 8001642:	68bb      	ldr	r3, [r7, #8]
 8001644:	4413      	add	r3, r2
 8001646:	3348      	adds	r3, #72	; 0x48
 8001648:	781b      	ldrb	r3, [r3, #0]
 800164a:	f887 302b 	strb.w	r3, [r7, #43]	; 0x2b
 800164e:	6b3a      	ldr	r2, [r7, #48]	; 0x30
 8001650:	68bb      	ldr	r3, [r7, #8]
 8001652:	4413      	add	r3, r2
 8001654:	3348      	adds	r3, #72	; 0x48
 8001656:	2202      	movs	r2, #2
 8001658:	701a      	strb	r2, [r3, #0]
 800165a:	78fb      	ldrb	r3, [r7, #3]
 800165c:	2b04      	cmp	r3, #4
 800165e:	d841      	bhi.n	80016e4 <xTaskGenericNotifyFromISR+0xec>
 8001660:	a201      	add	r2, pc, #4	; (adr r2, 8001668 <xTaskGenericNotifyFromISR+0x70>)
 8001662:	f852 f023 	ldr.w	pc, [r2, r3, lsl #2]
 8001666:	bf00      	nop
 8001668:	080016e5 	stmdaeq	r0, {r0, r2, r5, r6, r7, r9, sl, ip}
 800166c:	0800167d 	stmdaeq	r0, {r0, r2, r3, r4, r5, r6, r9, sl, ip}
 8001670:	0800169b 	stmdaeq	r0, {r0, r1, r3, r4, r7, r9, sl, ip}
 8001674:	080016b7 	stmdaeq	r0, {r0, r1, r2, r4, r5, r7, r9, sl, ip}
 8001678:	080016c7 	stmdaeq	r0, {r0, r1, r2, r6, r7, r9, sl, ip}
 800167c:	6b3a      	ldr	r2, [r7, #48]	; 0x30
 800167e:	68bb      	ldr	r3, [r7, #8]
 8001680:	3310      	adds	r3, #16
 8001682:	009b      	lsls	r3, r3, #2
 8001684:	4413      	add	r3, r2
 8001686:	685a      	ldr	r2, [r3, #4]
 8001688:	687b      	ldr	r3, [r7, #4]
 800168a:	431a      	orrs	r2, r3
 800168c:	6b39      	ldr	r1, [r7, #48]	; 0x30
 800168e:	68bb      	ldr	r3, [r7, #8]
 8001690:	3310      	adds	r3, #16
 8001692:	009b      	lsls	r3, r3, #2
 8001694:	440b      	add	r3, r1
 8001696:	605a      	str	r2, [r3, #4]
 8001698:	e025      	b.n	80016e6 <xTaskGenericNotifyFromISR+0xee>
 800169a:	6b3a      	ldr	r2, [r7, #48]	; 0x30
 800169c:	68bb      	ldr	r3, [r7, #8]
 800169e:	3310      	adds	r3, #16
 80016a0:	009b      	lsls	r3, r3, #2
 80016a2:	4413      	add	r3, r2
 80016a4:	685b      	ldr	r3, [r3, #4]
 80016a6:	1c5a      	adds	r2, r3, #1
 80016a8:	6b39      	ldr	r1, [r7, #48]	; 0x30
 80016aa:	68bb      	ldr	r3, [r7, #8]
 80016ac:	3310      	adds	r3, #16
 80016ae:	009b      	lsls	r3, r3, #2
 80016b0:	440b      	add	r3, r1
 80016b2:	605a      	str	r2, [r3, #4]
 80016b4:	e017      	b.n	80016e6 <xTaskGenericNotifyFromISR+0xee>
 80016b6:	6b3a      	ldr	r2, [r7, #48]	; 0x30
 80016b8:	68bb      	ldr	r3, [r7, #8]
 80016ba:	3310      	adds	r3, #16
 80016bc:	009b      	lsls	r3, r3, #2
 80016be:	4413      	add	r3, r2
 80016c0:	687a      	ldr	r2, [r7, #4]
 80016c2:	605a      	str	r2, [r3, #4]
 80016c4:	e00f      	b.n	80016e6 <xTaskGenericNotifyFromISR+0xee>
 80016c6:	f897 302b 	ldrb.w	r3, [r7, #43]	; 0x2b
 80016ca:	2b02      	cmp	r3, #2
 80016cc:	d007      	beq.n	80016de <xTaskGenericNotifyFromISR+0xe6>
 80016ce:	6b3a      	ldr	r2, [r7, #48]	; 0x30
 80016d0:	68bb      	ldr	r3, [r7, #8]
 80016d2:	3310      	adds	r3, #16
 80016d4:	009b      	lsls	r3, r3, #2
 80016d6:	4413      	add	r3, r2
 80016d8:	687a      	ldr	r2, [r7, #4]
 80016da:	605a      	str	r2, [r3, #4]
 80016dc:	e003      	b.n	80016e6 <xTaskGenericNotifyFromISR+0xee>
 80016de:	2300      	movs	r3, #0
 80016e0:	637b      	str	r3, [r7, #52]	; 0x34
 80016e2:	e000      	b.n	80016e6 <xTaskGenericNotifyFromISR+0xee>
 80016e4:	bf00      	nop
 80016e6:	f897 302b 	ldrb.w	r3, [r7, #43]	; 0x2b
 80016ea:	2b01      	cmp	r3, #1
 80016ec:	f040 8091 	bne.w	8001812 <xTaskGenericNotifyFromISR+0x21a>
 80016f0:	4b4e      	ldr	r3, [pc, #312]	; (800182c <xTaskGenericNotifyFromISR+0x234>)
 80016f2:	681b      	ldr	r3, [r3, #0]
 80016f4:	2b00      	cmp	r3, #0
 80016f6:	d160      	bne.n	80017ba <xTaskGenericNotifyFromISR+0x1c2>
 80016f8:	6b3b      	ldr	r3, [r7, #48]	; 0x30
 80016fa:	695b      	ldr	r3, [r3, #20]
 80016fc:	623b      	str	r3, [r7, #32]
 80016fe:	6b3b      	ldr	r3, [r7, #48]	; 0x30
 8001700:	689b      	ldr	r3, [r3, #8]
 8001702:	6b3a      	ldr	r2, [r7, #48]	; 0x30
 8001704:	68d2      	ldr	r2, [r2, #12]
 8001706:	609a      	str	r2, [r3, #8]
 8001708:	6b3b      	ldr	r3, [r7, #48]	; 0x30
 800170a:	68db      	ldr	r3, [r3, #12]
 800170c:	6b3a      	ldr	r2, [r7, #48]	; 0x30
 800170e:	6892      	ldr	r2, [r2, #8]
 8001710:	605a      	str	r2, [r3, #4]
 8001712:	6a3b      	ldr	r3, [r7, #32]
 8001714:	685a      	ldr	r2, [r3, #4]
 8001716:	6b3b      	ldr	r3, [r7, #48]	; 0x30
 8001718:	3304      	adds	r3, #4
 800171a:	429a      	cmp	r2, r3
 800171c:	d103      	bne.n	8001726 <xTaskGenericNotifyFromISR+0x12e>
 800171e:	6b3b      	ldr	r3, [r7, #48]	; 0x30
 8001720:	68da      	ldr	r2, [r3, #12]
 8001722:	6a3b      	ldr	r3, [r7, #32]
 8001724:	605a      	str	r2, [r3, #4]
 8001726:	6b3b      	ldr	r3, [r7, #48]	; 0x30
 8001728:	2200      	movs	r2, #0
 800172a:	615a      	str	r2, [r3, #20]
 800172c:	6a3b      	ldr	r3, [r7, #32]
 800172e:	681b      	ldr	r3, [r3, #0]
 8001730:	1e5a      	subs	r2, r3, #1
 8001732:	6a3b      	ldr	r3, [r7, #32]
 8001734:	601a      	str	r2, [r3, #0]
 8001736:	6b3b      	ldr	r3, [r7, #48]	; 0x30
 8001738:	6adb      	ldr	r3, [r3, #44]	; 0x2c
 800173a:	2201      	movs	r2, #1
 800173c:	409a      	lsls	r2, r3
 800173e:	4b3c      	ldr	r3, [pc, #240]	; (8001830 <xTaskGenericNotifyFromISR+0x238>)
 8001740:	681b      	ldr	r3, [r3, #0]
 8001742:	4313      	orrs	r3, r2
 8001744:	4a3a      	ldr	r2, [pc, #232]	; (8001830 <xTaskGenericNotifyFromISR+0x238>)
 8001746:	6013      	str	r3, [r2, #0]
 8001748:	6b3b      	ldr	r3, [r7, #48]	; 0x30
 800174a:	6ada      	ldr	r2, [r3, #44]	; 0x2c
 800174c:	4939      	ldr	r1, [pc, #228]	; (8001834 <xTaskGenericNotifyFromISR+0x23c>)
 800174e:	4613      	mov	r3, r2
 8001750:	009b      	lsls	r3, r3, #2
 8001752:	4413      	add	r3, r2
 8001754:	009b      	lsls	r3, r3, #2
 8001756:	440b      	add	r3, r1
 8001758:	3304      	adds	r3, #4
 800175a:	681b      	ldr	r3, [r3, #0]
 800175c:	61fb      	str	r3, [r7, #28]
 800175e:	6b3b      	ldr	r3, [r7, #48]	; 0x30
 8001760:	69fa      	ldr	r2, [r7, #28]
 8001762:	609a      	str	r2, [r3, #8]
 8001764:	69fb      	ldr	r3, [r7, #28]
 8001766:	689a      	ldr	r2, [r3, #8]
 8001768:	6b3b      	ldr	r3, [r7, #48]	; 0x30
 800176a:	60da      	str	r2, [r3, #12]
 800176c:	69fb      	ldr	r3, [r7, #28]
 800176e:	689b      	ldr	r3, [r3, #8]
 8001770:	6b3a      	ldr	r2, [r7, #48]	; 0x30
 8001772:	3204      	adds	r2, #4
 8001774:	605a      	str	r2, [r3, #4]
 8001776:	6b3b      	ldr	r3, [r7, #48]	; 0x30
 8001778:	1d1a      	adds	r2, r3, #4
 800177a:	69fb      	ldr	r3, [r7, #28]
 800177c:	609a      	str	r2, [r3, #8]
 800177e:	6b3b      	ldr	r3, [r7, #48]	; 0x30
 8001780:	6ada      	ldr	r2, [r3, #44]	; 0x2c
 8001782:	4613      	mov	r3, r2
 8001784:	009b      	lsls	r3, r3, #2
 8001786:	4413      	add	r3, r2
 8001788:	009b      	lsls	r3, r3, #2
 800178a:	4a2a      	ldr	r2, [pc, #168]	; (8001834 <xTaskGenericNotifyFromISR+0x23c>)
 800178c:	441a      	add	r2, r3
 800178e:	6b3b      	ldr	r3, [r7, #48]	; 0x30
 8001790:	615a      	str	r2, [r3, #20]
 8001792:	6b3b      	ldr	r3, [r7, #48]	; 0x30
 8001794:	6ada      	ldr	r2, [r3, #44]	; 0x2c
 8001796:	4927      	ldr	r1, [pc, #156]	; (8001834 <xTaskGenericNotifyFromISR+0x23c>)
 8001798:	4613      	mov	r3, r2
 800179a:	009b      	lsls	r3, r3, #2
 800179c:	4413      	add	r3, r2
 800179e:	009b      	lsls	r3, r3, #2
 80017a0:	440b      	add	r3, r1
 80017a2:	681b      	ldr	r3, [r3, #0]
 80017a4:	6b3a      	ldr	r2, [r7, #48]	; 0x30
 80017a6:	6ad2      	ldr	r2, [r2, #44]	; 0x2c
 80017a8:	1c59      	adds	r1, r3, #1
 80017aa:	4822      	ldr	r0, [pc, #136]	; (8001834 <xTaskGenericNotifyFromISR+0x23c>)
 80017ac:	4613      	mov	r3, r2
 80017ae:	009b      	lsls	r3, r3, #2
 80017b0:	4413      	add	r3, r2
 80017b2:	009b      	lsls	r3, r3, #2
 80017b4:	4403      	add	r3, r0
 80017b6:	6019      	str	r1, [r3, #0]
 80017b8:	e01b      	b.n	80017f2 <xTaskGenericNotifyFromISR+0x1fa>
 80017ba:	4b1f      	ldr	r3, [pc, #124]	; (8001838 <xTaskGenericNotifyFromISR+0x240>)
 80017bc:	685b      	ldr	r3, [r3, #4]
 80017be:	627b      	str	r3, [r7, #36]	; 0x24
 80017c0:	6b3b      	ldr	r3, [r7, #48]	; 0x30
 80017c2:	6a7a      	ldr	r2, [r7, #36]	; 0x24
 80017c4:	61da      	str	r2, [r3, #28]
 80017c6:	6a7b      	ldr	r3, [r7, #36]	; 0x24
 80017c8:	689a      	ldr	r2, [r3, #8]
 80017ca:	6b3b      	ldr	r3, [r7, #48]	; 0x30
 80017cc:	621a      	str	r2, [r3, #32]
 80017ce:	6a7b      	ldr	r3, [r7, #36]	; 0x24
 80017d0:	689b      	ldr	r3, [r3, #8]
 80017d2:	6b3a      	ldr	r2, [r7, #48]	; 0x30
 80017d4:	3218      	adds	r2, #24
 80017d6:	605a      	str	r2, [r3, #4]
 80017d8:	6b3b      	ldr	r3, [r7, #48]	; 0x30
 80017da:	f103 0218 	add.w	r2, r3, #24
 80017de:	6a7b      	ldr	r3, [r7, #36]	; 0x24
 80017e0:	609a      	str	r2, [r3, #8]
 80017e2:	6b3b      	ldr	r3, [r7, #48]	; 0x30
 80017e4:	4a14      	ldr	r2, [pc, #80]	; (8001838 <xTaskGenericNotifyFromISR+0x240>)
 80017e6:	629a      	str	r2, [r3, #40]	; 0x28
 80017e8:	4b13      	ldr	r3, [pc, #76]	; (8001838 <xTaskGenericNotifyFromISR+0x240>)
 80017ea:	681b      	ldr	r3, [r3, #0]
 80017ec:	3301      	adds	r3, #1
 80017ee:	4a12      	ldr	r2, [pc, #72]	; (8001838 <xTaskGenericNotifyFromISR+0x240>)
 80017f0:	6013      	str	r3, [r2, #0]
 80017f2:	6b3b      	ldr	r3, [r7, #48]	; 0x30
 80017f4:	6ada      	ldr	r2, [r3, #44]	; 0x2c
 80017f6:	4b11      	ldr	r3, [pc, #68]	; (800183c <xTaskGenericNotifyFromISR+0x244>)
 80017f8:	681b      	ldr	r3, [r3, #0]
 80017fa:	6adb      	ldr	r3, [r3, #44]	; 0x2c
 80017fc:	429a      	cmp	r2, r3
 80017fe:	d908      	bls.n	8001812 <xTaskGenericNotifyFromISR+0x21a>
 8001800:	6c7b      	ldr	r3, [r7, #68]	; 0x44
 8001802:	2b00      	cmp	r3, #0
 8001804:	d002      	beq.n	800180c <xTaskGenericNotifyFromISR+0x214>
 8001806:	6c7b      	ldr	r3, [r7, #68]	; 0x44
 8001808:	2201      	movs	r2, #1
 800180a:	601a      	str	r2, [r3, #0]
 800180c:	4b0c      	ldr	r3, [pc, #48]	; (8001840 <xTaskGenericNotifyFromISR+0x248>)
 800180e:	2201      	movs	r2, #1
 8001810:	601a      	str	r2, [r3, #0]
 8001812:	6afb      	ldr	r3, [r7, #44]	; 0x2c
 8001814:	613b      	str	r3, [r7, #16]
 8001816:	693b      	ldr	r3, [r7, #16]
 8001818:	f383 8811 	msr	BASEPRI, r3
 800181c:	bf00      	nop
 800181e:	6b7b      	ldr	r3, [r7, #52]	; 0x34
 8001820:	4618      	mov	r0, r3
 8001822:	373c      	adds	r7, #60	; 0x3c
 8001824:	46bd      	mov	sp, r7
 8001826:	f85d 7b04 	ldr.w	r7, [sp], #4
 800182a:	4770      	bx	lr
 800182c:	20000360 	andcs	r0, r0, r0, ror #6
 8001830:	20000340 	andcs	r0, r0, r0, asr #6
 8001834:	2000022c 	andcs	r0, r0, ip, lsr #4
 8001838:	20000324 	andcs	r0, r0, r4, lsr #6
 800183c:	20000228 	andcs	r0, r0, r8, lsr #4
 8001840:	2000034c 	andcs	r0, r0, ip, asr #6

08001844 <vTaskGenericNotifyGiveFromISR>:
 8001844:	b480      	push	{r7}
 8001846:	b08f      	sub	sp, #60	; 0x3c
 8001848:	af00      	add	r7, sp, #0
 800184a:	60f8      	str	r0, [r7, #12]
 800184c:	60b9      	str	r1, [r7, #8]
 800184e:	607a      	str	r2, [r7, #4]
 8001850:	68fb      	ldr	r3, [r7, #12]
 8001852:	637b      	str	r3, [r7, #52]	; 0x34
 8001854:	f3ef 8211 	mrs	r2, BASEPRI
 8001858:	f04f 0350 	mov.w	r3, #80	; 0x50
 800185c:	f383 8811 	msr	BASEPRI, r3
 8001860:	f3bf 8f6f 	isb	sy
 8001864:	f3bf 8f4f 	dsb	sy
 8001868:	61fa      	str	r2, [r7, #28]
 800186a:	61bb      	str	r3, [r7, #24]
 800186c:	69fb      	ldr	r3, [r7, #28]
 800186e:	633b      	str	r3, [r7, #48]	; 0x30
 8001870:	6b7a      	ldr	r2, [r7, #52]	; 0x34
 8001872:	68bb      	ldr	r3, [r7, #8]
 8001874:	4413      	add	r3, r2
 8001876:	3348      	adds	r3, #72	; 0x48
 8001878:	781b      	ldrb	r3, [r3, #0]
 800187a:	f887 302f 	strb.w	r3, [r7, #47]	; 0x2f
 800187e:	6b7a      	ldr	r2, [r7, #52]	; 0x34
 8001880:	68bb      	ldr	r3, [r7, #8]
 8001882:	4413      	add	r3, r2
 8001884:	3348      	adds	r3, #72	; 0x48
 8001886:	2202      	movs	r2, #2
 8001888:	701a      	strb	r2, [r3, #0]
 800188a:	6b7a      	ldr	r2, [r7, #52]	; 0x34
 800188c:	68bb      	ldr	r3, [r7, #8]
 800188e:	3310      	adds	r3, #16
 8001890:	009b      	lsls	r3, r3, #2
 8001892:	4413      	add	r3, r2
 8001894:	685b      	ldr	r3, [r3, #4]
 8001896:	1c5a      	adds	r2, r3, #1
 8001898:	6b79      	ldr	r1, [r7, #52]	; 0x34
 800189a:	68bb      	ldr	r3, [r7, #8]
 800189c:	3310      	adds	r3, #16
 800189e:	009b      	lsls	r3, r3, #2
 80018a0:	440b      	add	r3, r1
 80018a2:	605a      	str	r2, [r3, #4]
 80018a4:	f897 302f 	ldrb.w	r3, [r7, #47]	; 0x2f
 80018a8:	2b01      	cmp	r3, #1
 80018aa:	f040 8091 	bne.w	80019d0 <vTaskGenericNotifyGiveFromISR+0x18c>
 80018ae:	4b4e      	ldr	r3, [pc, #312]	; (80019e8 <vTaskGenericNotifyGiveFromISR+0x1a4>)
 80018b0:	681b      	ldr	r3, [r3, #0]
 80018b2:	2b00      	cmp	r3, #0
 80018b4:	d160      	bne.n	8001978 <vTaskGenericNotifyGiveFromISR+0x134>
 80018b6:	6b7b      	ldr	r3, [r7, #52]	; 0x34
 80018b8:	695b      	ldr	r3, [r3, #20]
 80018ba:	627b      	str	r3, [r7, #36]	; 0x24
 80018bc:	6b7b      	ldr	r3, [r7, #52]	; 0x34
 80018be:	689b      	ldr	r3, [r3, #8]
 80018c0:	6b7a      	ldr	r2, [r7, #52]	; 0x34
 80018c2:	68d2      	ldr	r2, [r2, #12]
 80018c4:	609a      	str	r2, [r3, #8]
 80018c6:	6b7b      	ldr	r3, [r7, #52]	; 0x34
 80018c8:	68db      	ldr	r3, [r3, #12]
 80018ca:	6b7a      	ldr	r2, [r7, #52]	; 0x34
 80018cc:	6892      	ldr	r2, [r2, #8]
 80018ce:	605a      	str	r2, [r3, #4]
 80018d0:	6a7b      	ldr	r3, [r7, #36]	; 0x24
 80018d2:	685a      	ldr	r2, [r3, #4]
 80018d4:	6b7b      	ldr	r3, [r7, #52]	; 0x34
 80018d6:	3304      	adds	r3, #4
 80018d8:	429a      	cmp	r2, r3
 80018da:	d103      	bne.n	80018e4 <vTaskGenericNotifyGiveFromISR+0xa0>
 80018dc:	6b7b      	ldr	r3, [r7, #52]	; 0x34
 80018de:	68da      	ldr	r2, [r3, #12]
 80018e0:	6a7b      	ldr	r3, [r7, #36]	; 0x24
 80018e2:	605a      	str	r2, [r3, #4]
 80018e4:	6b7b      	ldr	r3, [r7, #52]	; 0x34
 80018e6:	2200      	movs	r2, #0
 80018e8:	615a      	str	r2, [r3, #20]
 80018ea:	6a7b      	ldr	r3, [r7, #36]	; 0x24
 80018ec:	681b      	ldr	r3, [r3, #0]
 80018ee:	1e5a      	subs	r2, r3, #1
 80018f0:	6a7b      	ldr	r3, [r7, #36]	; 0x24
 80018f2:	601a      	str	r2, [r3, #0]
 80018f4:	6b7b      	ldr	r3, [r7, #52]	; 0x34
 80018f6:	6adb      	ldr	r3, [r3, #44]	; 0x2c
 80018f8:	2201      	movs	r2, #1
 80018fa:	409a      	lsls	r2, r3
 80018fc:	4b3b      	ldr	r3, [pc, #236]	; (80019ec <vTaskGenericNotifyGiveFromISR+0x1a8>)
 80018fe:	681b      	ldr	r3, [r3, #0]
 8001900:	4313      	orrs	r3, r2
 8001902:	4a3a      	ldr	r2, [pc, #232]	; (80019ec <vTaskGenericNotifyGiveFromISR+0x1a8>)
 8001904:	6013      	str	r3, [r2, #0]
 8001906:	6b7b      	ldr	r3, [r7, #52]	; 0x34
 8001908:	6ada      	ldr	r2, [r3, #44]	; 0x2c
 800190a:	4939      	ldr	r1, [pc, #228]	; (80019f0 <vTaskGenericNotifyGiveFromISR+0x1ac>)
 800190c:	4613      	mov	r3, r2
 800190e:	009b      	lsls	r3, r3, #2
 8001910:	4413      	add	r3, r2
 8001912:	009b      	lsls	r3, r3, #2
 8001914:	440b      	add	r3, r1
 8001916:	3304      	adds	r3, #4
 8001918:	681b      	ldr	r3, [r3, #0]
 800191a:	623b      	str	r3, [r7, #32]
 800191c:	6b7b      	ldr	r3, [r7, #52]	; 0x34
 800191e:	6a3a      	ldr	r2, [r7, #32]
 8001920:	609a      	str	r2, [r3, #8]
 8001922:	6a3b      	ldr	r3, [r7, #32]
 8001924:	689a      	ldr	r2, [r3, #8]
 8001926:	6b7b      	ldr	r3, [r7, #52]	; 0x34
 8001928:	60da      	str	r2, [r3, #12]
 800192a:	6a3b      	ldr	r3, [r7, #32]
 800192c:	689b      	ldr	r3, [r3, #8]
 800192e:	6b7a      	ldr	r2, [r7, #52]	; 0x34
 8001930:	3204      	adds	r2, #4
 8001932:	605a      	str	r2, [r3, #4]
 8001934:	6b7b      	ldr	r3, [r7, #52]	; 0x34
 8001936:	1d1a      	adds	r2, r3, #4
 8001938:	6a3b      	ldr	r3, [r7, #32]
 800193a:	609a      	str	r2, [r3, #8]
 800193c:	6b7b      	ldr	r3, [r7, #52]	; 0x34
 800193e:	6ada      	ldr	r2, [r3, #44]	; 0x2c
 8001940:	4613      	mov	r3, r2
 8001942:	009b      	lsls	r3, r3, #2
 8001944:	4413      	add	r3, r2
 8001946:	009b      	lsls	r3, r3, #2
 8001948:	4a29      	ldr	r2, [pc, #164]	; (80019f0 <vTaskGenericNotifyGiveFromISR+0x1ac>)
 800194a:	441a      	add	r2, r3
 800194c:	6b7b      	ldr	r3, [r7, #52]	; 0x34
 800194e:	615a      	str	r2, [r3, #20]
 8001950:	6b7b      	ldr	r3, [r7, #52]	; 0x34
 8001952:	6ada      	ldr	r2, [r3, #44]	; 0x2c
 8001954:	4926      	ldr	r1, [pc, #152]	; (80019f0 <vTaskGenericNotifyGiveFromISR+0x1ac>)
 8001956:	4613      	mov	r3, r2
 8001958:	009b      	lsls	r3, r3, #2
 800195a:	4413      	add	r3, r2
 800195c:	009b      	lsls	r3, r3, #2
 800195e:	440b      	add	r3, r1
 8001960:	681b      	ldr	r3, [r3, #0]
 8001962:	6b7a      	ldr	r2, [r7, #52]	; 0x34
 8001964:	6ad2      	ldr	r2, [r2, #44]	; 0x2c
 8001966:	1c59      	adds	r1, r3, #1
 8001968:	4821      	ldr	r0, [pc, #132]	; (80019f0 <vTaskGenericNotifyGiveFromISR+0x1ac>)
 800196a:	4613      	mov	r3, r2
 800196c:	009b      	lsls	r3, r3, #2
 800196e:	4413      	add	r3, r2
 8001970:	009b      	lsls	r3, r3, #2
 8001972:	4403      	add	r3, r0
 8001974:	6019      	str	r1, [r3, #0]
 8001976:	e01b      	b.n	80019b0 <vTaskGenericNotifyGiveFromISR+0x16c>
 8001978:	4b1e      	ldr	r3, [pc, #120]	; (80019f4 <vTaskGenericNotifyGiveFromISR+0x1b0>)
 800197a:	685b      	ldr	r3, [r3, #4]
 800197c:	62bb      	str	r3, [r7, #40]	; 0x28
 800197e:	6b7b      	ldr	r3, [r7, #52]	; 0x34
 8001980:	6aba      	ldr	r2, [r7, #40]	; 0x28
 8001982:	61da      	str	r2, [r3, #28]
 8001984:	6abb      	ldr	r3, [r7, #40]	; 0x28
 8001986:	689a      	ldr	r2, [r3, #8]
 8001988:	6b7b      	ldr	r3, [r7, #52]	; 0x34
 800198a:	621a      	str	r2, [r3, #32]
 800198c:	6abb      	ldr	r3, [r7, #40]	; 0x28
 800198e:	689b      	ldr	r3, [r3, #8]
 8001990:	6b7a      	ldr	r2, [r7, #52]	; 0x34
 8001992:	3218      	adds	r2, #24
 8001994:	605a      	str	r2, [r3, #4]
 8001996:	6b7b      	ldr	r3, [r7, #52]	; 0x34
 8001998:	f103 0218 	add.w	r2, r3, #24
 800199c:	6abb      	ldr	r3, [r7, #40]	; 0x28
 800199e:	609a      	str	r2, [r3, #8]
 80019a0:	6b7b      	ldr	r3, [r7, #52]	; 0x34
 80019a2:	4a14      	ldr	r2, [pc, #80]	; (80019f4 <vTaskGenericNotifyGiveFromISR+0x1b0>)
 80019a4:	629a      	str	r2, [r3, #40]	; 0x28
 80019a6:	4b13      	ldr	r3, [pc, #76]	; (80019f4 <vTaskGenericNotifyGiveFromISR+0x1b0>)
 80019a8:	681b      	ldr	r3, [r3, #0]
 80019aa:	3301      	adds	r3, #1
 80019ac:	4a11      	ldr	r2, [pc, #68]	; (80019f4 <vTaskGenericNotifyGiveFromISR+0x1b0>)
 80019ae:	6013      	str	r3, [r2, #0]
 80019b0:	6b7b      	ldr	r3, [r7, #52]	; 0x34
 80019b2:	6ada      	ldr	r2, [r3, #44]	; 0x2c
 80019b4:	4b10      	ldr	r3, [pc, #64]	; (80019f8 <vTaskGenericNotifyGiveFromISR+0x1b4>)
 80019b6:	681b      	ldr	r3, [r3, #0]
 80019b8:	6adb      	ldr	r3, [r3, #44]	; 0x2c
 80019ba:	429a      	cmp	r2, r3
 80019bc:	d908      	bls.n	80019d0 <vTaskGenericNotifyGiveFromISR+0x18c>
 80019be:	687b      	ldr	r3, [r7, #4]
 80019c0:	2b00      	cmp	r3, #0
 80019c2:	d002      	beq.n	80019ca <vTaskGenericNotifyGiveFromISR+0x186>
 80019c4:	687b      	ldr	r3, [r7, #4]
 80019c6:	2201      	movs	r2, #1
 80019c8:	601a      	str	r2, [r3, #0]
 80019ca:	4b0c      	ldr	r3, [pc, #48]	; (80019fc <vTaskGenericNotifyGiveFromISR+0x1b8>)
 80019cc:	2201      	movs	r2, #1
 80019ce:	601a      	str	r2, [r3, #0]
 80019d0:	6b3b      	ldr	r3, [r7, #48]	; 0x30
 80019d2:	617b      	str	r3, [r7, #20]
 80019d4:	697b      	ldr	r3, [r7, #20]
 80019d6:	f383 8811 	msr	BASEPRI, r3
 80019da:	bf00      	nop
 80019dc:	bf00      	nop
 80019de:	373c      	adds	r7, #60	; 0x3c
 80019e0:	46bd      	mov	sp, r7
 80019e2:	f85d 7b04 	ldr.w	r7, [sp], #4
 80019e6:	4770      	bx	lr
 80019e8:	20000360 	andcs	r0, r0, r0, ror #6
 80019ec:	20000340 	andcs	r0, r0, r0, asr #6
 80019f0:	2000022c 	andcs	r0, r0, ip, lsr #4
 80019f4:	20000324 	andcs	r0, r0, r4, lsr #6
 80019f8:	20000228 	andcs	r0, r0, r8, lsr #4
 80019fc:	2000034c 	andcs	r0, r0, ip, asr #6

08001a00 <xTaskGenericNotifyStateClear>:
 8001a00:	b580      	push	{r7, lr}
 8001a02:	b084      	sub	sp, #16
 8001a04:	af00      	add	r7, sp, #0
 8001a06:	6078      	str	r0, [r7, #4]
 8001a08:	6039      	str	r1, [r7, #0]
 8001a0a:	687b      	ldr	r3, [r7, #4]
 8001a0c:	2b00      	cmp	r3, #0
 8001a0e:	d102      	bne.n	8001a16 <xTaskGenericNotifyStateClear+0x16>
 8001a10:	4b10      	ldr	r3, [pc, #64]	; (8001a54 <xTaskGenericNotifyStateClear+0x54>)
 8001a12:	681b      	ldr	r3, [r3, #0]
 8001a14:	e000      	b.n	8001a18 <xTaskGenericNotifyStateClear+0x18>
 8001a16:	687b      	ldr	r3, [r7, #4]
 8001a18:	60bb      	str	r3, [r7, #8]
 8001a1a:	f002 fa3c 	bl	8003e96 <vPortEnterCritical>
 8001a1e:	68ba      	ldr	r2, [r7, #8]
 8001a20:	683b      	ldr	r3, [r7, #0]
 8001a22:	4413      	add	r3, r2
 8001a24:	3348      	adds	r3, #72	; 0x48
 8001a26:	781b      	ldrb	r3, [r3, #0]
 8001a28:	b2db      	uxtb	r3, r3
 8001a2a:	2b02      	cmp	r3, #2
 8001a2c:	d108      	bne.n	8001a40 <xTaskGenericNotifyStateClear+0x40>
 8001a2e:	68ba      	ldr	r2, [r7, #8]
 8001a30:	683b      	ldr	r3, [r7, #0]
 8001a32:	4413      	add	r3, r2
 8001a34:	3348      	adds	r3, #72	; 0x48
 8001a36:	2200      	movs	r2, #0
 8001a38:	701a      	strb	r2, [r3, #0]
 8001a3a:	2301      	movs	r3, #1
 8001a3c:	60fb      	str	r3, [r7, #12]
 8001a3e:	e001      	b.n	8001a44 <xTaskGenericNotifyStateClear+0x44>
 8001a40:	2300      	movs	r3, #0
 8001a42:	60fb      	str	r3, [r7, #12]
 8001a44:	f002 fa42 	bl	8003ecc <vPortExitCritical>
 8001a48:	68fb      	ldr	r3, [r7, #12]
 8001a4a:	4618      	mov	r0, r3
 8001a4c:	3710      	adds	r7, #16
 8001a4e:	46bd      	mov	sp, r7
 8001a50:	bd80      	pop	{r7, pc}
 8001a52:	bf00      	nop
 8001a54:	20000228 	andcs	r0, r0, r8, lsr #4

08001a58 <ulTaskGenericNotifyValueClear>:
 8001a58:	b580      	push	{r7, lr}
 8001a5a:	b086      	sub	sp, #24
 8001a5c:	af00      	add	r7, sp, #0
 8001a5e:	60f8      	str	r0, [r7, #12]
 8001a60:	60b9      	str	r1, [r7, #8]
 8001a62:	607a      	str	r2, [r7, #4]
 8001a64:	68fb      	ldr	r3, [r7, #12]
 8001a66:	2b00      	cmp	r3, #0
 8001a68:	d102      	bne.n	8001a70 <ulTaskGenericNotifyValueClear+0x18>
 8001a6a:	4b12      	ldr	r3, [pc, #72]	; (8001ab4 <ulTaskGenericNotifyValueClear+0x5c>)
 8001a6c:	681b      	ldr	r3, [r3, #0]
 8001a6e:	e000      	b.n	8001a72 <ulTaskGenericNotifyValueClear+0x1a>
 8001a70:	68fb      	ldr	r3, [r7, #12]
 8001a72:	617b      	str	r3, [r7, #20]
 8001a74:	f002 fa0f 	bl	8003e96 <vPortEnterCritical>
 8001a78:	697a      	ldr	r2, [r7, #20]
 8001a7a:	68bb      	ldr	r3, [r7, #8]
 8001a7c:	3310      	adds	r3, #16
 8001a7e:	009b      	lsls	r3, r3, #2
 8001a80:	4413      	add	r3, r2
 8001a82:	685b      	ldr	r3, [r3, #4]
 8001a84:	613b      	str	r3, [r7, #16]
 8001a86:	697a      	ldr	r2, [r7, #20]
 8001a88:	68bb      	ldr	r3, [r7, #8]
 8001a8a:	3310      	adds	r3, #16
 8001a8c:	009b      	lsls	r3, r3, #2
 8001a8e:	4413      	add	r3, r2
 8001a90:	685a      	ldr	r2, [r3, #4]
 8001a92:	687b      	ldr	r3, [r7, #4]
 8001a94:	43db      	mvns	r3, r3
 8001a96:	401a      	ands	r2, r3
 8001a98:	6979      	ldr	r1, [r7, #20]
 8001a9a:	68bb      	ldr	r3, [r7, #8]
 8001a9c:	3310      	adds	r3, #16
 8001a9e:	009b      	lsls	r3, r3, #2
 8001aa0:	440b      	add	r3, r1
 8001aa2:	605a      	str	r2, [r3, #4]
 8001aa4:	f002 fa12 	bl	8003ecc <vPortExitCritical>
 8001aa8:	693b      	ldr	r3, [r7, #16]
 8001aaa:	4618      	mov	r0, r3
 8001aac:	3718      	adds	r7, #24
 8001aae:	46bd      	mov	sp, r7
 8001ab0:	bd80      	pop	{r7, pc}
 8001ab2:	bf00      	nop
 8001ab4:	20000228 	andcs	r0, r0, r8, lsr #4

08001ab8 <prvAddCurrentTaskToDelayedList>:
 8001ab8:	b580      	push	{r7, lr}
 8001aba:	b086      	sub	sp, #24
 8001abc:	af00      	add	r7, sp, #0
 8001abe:	6078      	str	r0, [r7, #4]
 8001ac0:	6039      	str	r1, [r7, #0]
 8001ac2:	4b22      	ldr	r3, [pc, #136]	; (8001b4c <prvAddCurrentTaskToDelayedList+0x94>)
 8001ac4:	681b      	ldr	r3, [r3, #0]
 8001ac6:	617b      	str	r3, [r7, #20]
 8001ac8:	4b21      	ldr	r3, [pc, #132]	; (8001b50 <prvAddCurrentTaskToDelayedList+0x98>)
 8001aca:	681b      	ldr	r3, [r3, #0]
 8001acc:	613b      	str	r3, [r7, #16]
 8001ace:	4b21      	ldr	r3, [pc, #132]	; (8001b54 <prvAddCurrentTaskToDelayedList+0x9c>)
 8001ad0:	681b      	ldr	r3, [r3, #0]
 8001ad2:	60fb      	str	r3, [r7, #12]
 8001ad4:	4b20      	ldr	r3, [pc, #128]	; (8001b58 <prvAddCurrentTaskToDelayedList+0xa0>)
 8001ad6:	681b      	ldr	r3, [r3, #0]
 8001ad8:	3304      	adds	r3, #4
 8001ada:	4618      	mov	r0, r3
 8001adc:	f000 ff58 	bl	8002990 <uxListRemove>
 8001ae0:	4603      	mov	r3, r0
 8001ae2:	2b00      	cmp	r3, #0
 8001ae4:	d10b      	bne.n	8001afe <prvAddCurrentTaskToDelayedList+0x46>
 8001ae6:	4b1c      	ldr	r3, [pc, #112]	; (8001b58 <prvAddCurrentTaskToDelayedList+0xa0>)
 8001ae8:	681b      	ldr	r3, [r3, #0]
 8001aea:	6adb      	ldr	r3, [r3, #44]	; 0x2c
 8001aec:	2201      	movs	r2, #1
 8001aee:	fa02 f303 	lsl.w	r3, r2, r3
 8001af2:	43da      	mvns	r2, r3
 8001af4:	4b19      	ldr	r3, [pc, #100]	; (8001b5c <prvAddCurrentTaskToDelayedList+0xa4>)
 8001af6:	681b      	ldr	r3, [r3, #0]
 8001af8:	4013      	ands	r3, r2
 8001afa:	4a18      	ldr	r2, [pc, #96]	; (8001b5c <prvAddCurrentTaskToDelayedList+0xa4>)
 8001afc:	6013      	str	r3, [r2, #0]
 8001afe:	697a      	ldr	r2, [r7, #20]
 8001b00:	687b      	ldr	r3, [r7, #4]
 8001b02:	4413      	add	r3, r2
 8001b04:	60bb      	str	r3, [r7, #8]
 8001b06:	4b14      	ldr	r3, [pc, #80]	; (8001b58 <prvAddCurrentTaskToDelayedList+0xa0>)
 8001b08:	681b      	ldr	r3, [r3, #0]
 8001b0a:	68ba      	ldr	r2, [r7, #8]
 8001b0c:	605a      	str	r2, [r3, #4]
 8001b0e:	68ba      	ldr	r2, [r7, #8]
 8001b10:	697b      	ldr	r3, [r7, #20]
 8001b12:	429a      	cmp	r2, r3
 8001b14:	d207      	bcs.n	8001b26 <prvAddCurrentTaskToDelayedList+0x6e>
 8001b16:	4b10      	ldr	r3, [pc, #64]	; (8001b58 <prvAddCurrentTaskToDelayedList+0xa0>)
 8001b18:	681b      	ldr	r3, [r3, #0]
 8001b1a:	3304      	adds	r3, #4
 8001b1c:	4619      	mov	r1, r3
 8001b1e:	68f8      	ldr	r0, [r7, #12]
 8001b20:	f000 fefd 	bl	800291e <vListInsert>
 8001b24:	e00e      	b.n	8001b44 <prvAddCurrentTaskToDelayedList+0x8c>
 8001b26:	4b0c      	ldr	r3, [pc, #48]	; (8001b58 <prvAddCurrentTaskToDelayedList+0xa0>)
 8001b28:	681b      	ldr	r3, [r3, #0]
 8001b2a:	3304      	adds	r3, #4
 8001b2c:	4619      	mov	r1, r3
 8001b2e:	6938      	ldr	r0, [r7, #16]
 8001b30:	f000 fef5 	bl	800291e <vListInsert>
 8001b34:	4b0a      	ldr	r3, [pc, #40]	; (8001b60 <prvAddCurrentTaskToDelayedList+0xa8>)
 8001b36:	681b      	ldr	r3, [r3, #0]
 8001b38:	68ba      	ldr	r2, [r7, #8]
 8001b3a:	429a      	cmp	r2, r3
 8001b3c:	d202      	bcs.n	8001b44 <prvAddCurrentTaskToDelayedList+0x8c>
 8001b3e:	4a08      	ldr	r2, [pc, #32]	; (8001b60 <prvAddCurrentTaskToDelayedList+0xa8>)
 8001b40:	68bb      	ldr	r3, [r7, #8]
 8001b42:	6013      	str	r3, [r2, #0]
 8001b44:	bf00      	nop
 8001b46:	3718      	adds	r7, #24
 8001b48:	46bd      	mov	sp, r7
 8001b4a:	bd80      	pop	{r7, pc}
 8001b4c:	2000033c 	andcs	r0, r0, ip, lsr r3
 8001b50:	2000031c 	andcs	r0, r0, ip, lsl r3
 8001b54:	20000320 	andcs	r0, r0, r0, lsr #6
 8001b58:	20000228 	andcs	r0, r0, r8, lsr #4
 8001b5c:	20000340 	andcs	r0, r0, r0, asr #6
 8001b60:	20000358 	andcs	r0, r0, r8, asr r3

08001b64 <vTaskResetState>:
 8001b64:	b480      	push	{r7}
 8001b66:	b083      	sub	sp, #12
 8001b68:	af00      	add	r7, sp, #0
 8001b6a:	4b19      	ldr	r3, [pc, #100]	; (8001bd0 <vTaskResetState+0x6c>)
 8001b6c:	2200      	movs	r2, #0
 8001b6e:	601a      	str	r2, [r3, #0]
 8001b70:	4b18      	ldr	r3, [pc, #96]	; (8001bd4 <vTaskResetState+0x70>)
 8001b72:	2200      	movs	r2, #0
 8001b74:	601a      	str	r2, [r3, #0]
 8001b76:	4b18      	ldr	r3, [pc, #96]	; (8001bd8 <vTaskResetState+0x74>)
 8001b78:	2200      	movs	r2, #0
 8001b7a:	601a      	str	r2, [r3, #0]
 8001b7c:	4b17      	ldr	r3, [pc, #92]	; (8001bdc <vTaskResetState+0x78>)
 8001b7e:	2200      	movs	r2, #0
 8001b80:	601a      	str	r2, [r3, #0]
 8001b82:	4b17      	ldr	r3, [pc, #92]	; (8001be0 <vTaskResetState+0x7c>)
 8001b84:	2200      	movs	r2, #0
 8001b86:	601a      	str	r2, [r3, #0]
 8001b88:	4b16      	ldr	r3, [pc, #88]	; (8001be4 <vTaskResetState+0x80>)
 8001b8a:	2200      	movs	r2, #0
 8001b8c:	601a      	str	r2, [r3, #0]
 8001b8e:	2300      	movs	r3, #0
 8001b90:	607b      	str	r3, [r7, #4]
 8001b92:	e007      	b.n	8001ba4 <vTaskResetState+0x40>
 8001b94:	4a14      	ldr	r2, [pc, #80]	; (8001be8 <vTaskResetState+0x84>)
 8001b96:	687b      	ldr	r3, [r7, #4]
 8001b98:	2100      	movs	r1, #0
 8001b9a:	f842 1023 	str.w	r1, [r2, r3, lsl #2]
 8001b9e:	687b      	ldr	r3, [r7, #4]
 8001ba0:	3301      	adds	r3, #1
 8001ba2:	607b      	str	r3, [r7, #4]
 8001ba4:	687b      	ldr	r3, [r7, #4]
 8001ba6:	2b00      	cmp	r3, #0
 8001ba8:	ddf4      	ble.n	8001b94 <vTaskResetState+0x30>
 8001baa:	4b10      	ldr	r3, [pc, #64]	; (8001bec <vTaskResetState+0x88>)
 8001bac:	2200      	movs	r2, #0
 8001bae:	601a      	str	r2, [r3, #0]
 8001bb0:	4b0f      	ldr	r3, [pc, #60]	; (8001bf0 <vTaskResetState+0x8c>)
 8001bb2:	2200      	movs	r2, #0
 8001bb4:	601a      	str	r2, [r3, #0]
 8001bb6:	4b0f      	ldr	r3, [pc, #60]	; (8001bf4 <vTaskResetState+0x90>)
 8001bb8:	2200      	movs	r2, #0
 8001bba:	601a      	str	r2, [r3, #0]
 8001bbc:	4b0e      	ldr	r3, [pc, #56]	; (8001bf8 <vTaskResetState+0x94>)
 8001bbe:	2200      	movs	r2, #0
 8001bc0:	601a      	str	r2, [r3, #0]
 8001bc2:	bf00      	nop
 8001bc4:	370c      	adds	r7, #12
 8001bc6:	46bd      	mov	sp, r7
 8001bc8:	f85d 7b04 	ldr.w	r7, [sp], #4
 8001bcc:	4770      	bx	lr
 8001bce:	bf00      	nop
 8001bd0:	20000228 	andcs	r0, r0, r8, lsr #4
 8001bd4:	20000338 	andcs	r0, r0, r8, lsr r3
 8001bd8:	2000033c 	andcs	r0, r0, ip, lsr r3
 8001bdc:	20000340 	andcs	r0, r0, r0, asr #6
 8001be0:	20000344 	andcs	r0, r0, r4, asr #6
 8001be4:	20000348 	andcs	r0, r0, r8, asr #6
 8001be8:	2000034c 	andcs	r0, r0, ip, asr #6
 8001bec:	20000350 	andcs	r0, r0, r0, asr r3
 8001bf0:	20000354 	andcs	r0, r0, r4, asr r3
 8001bf4:	20000358 	andcs	r0, r0, r8, asr r3
 8001bf8:	20000360 	andcs	r0, r0, r0, ror #6

08001bfc <xQueueGenericReset>:
 8001bfc:	b580      	push	{r7, lr}
 8001bfe:	b084      	sub	sp, #16
 8001c00:	af00      	add	r7, sp, #0
 8001c02:	6078      	str	r0, [r7, #4]
 8001c04:	6039      	str	r1, [r7, #0]
 8001c06:	2301      	movs	r3, #1
 8001c08:	60fb      	str	r3, [r7, #12]
 8001c0a:	687b      	ldr	r3, [r7, #4]
 8001c0c:	60bb      	str	r3, [r7, #8]
 8001c0e:	68bb      	ldr	r3, [r7, #8]
 8001c10:	2b00      	cmp	r3, #0
 8001c12:	d05d      	beq.n	8001cd0 <xQueueGenericReset+0xd4>
 8001c14:	68bb      	ldr	r3, [r7, #8]
 8001c16:	6bdb      	ldr	r3, [r3, #60]	; 0x3c
 8001c18:	2b00      	cmp	r3, #0
 8001c1a:	d059      	beq.n	8001cd0 <xQueueGenericReset+0xd4>
 8001c1c:	68bb      	ldr	r3, [r7, #8]
 8001c1e:	6c1a      	ldr	r2, [r3, #64]	; 0x40
 8001c20:	68bb      	ldr	r3, [r7, #8]
 8001c22:	6bdb      	ldr	r3, [r3, #60]	; 0x3c
 8001c24:	2100      	movs	r1, #0
 8001c26:	fba3 2302 	umull	r2, r3, r3, r2
 8001c2a:	2b00      	cmp	r3, #0
 8001c2c:	d000      	beq.n	8001c30 <xQueueGenericReset+0x34>
 8001c2e:	2101      	movs	r1, #1
 8001c30:	460b      	mov	r3, r1
 8001c32:	2b00      	cmp	r3, #0
 8001c34:	d14c      	bne.n	8001cd0 <xQueueGenericReset+0xd4>
 8001c36:	f002 f92e 	bl	8003e96 <vPortEnterCritical>
 8001c3a:	68bb      	ldr	r3, [r7, #8]
 8001c3c:	681a      	ldr	r2, [r3, #0]
 8001c3e:	68bb      	ldr	r3, [r7, #8]
 8001c40:	6bdb      	ldr	r3, [r3, #60]	; 0x3c
 8001c42:	68b9      	ldr	r1, [r7, #8]
 8001c44:	6c09      	ldr	r1, [r1, #64]	; 0x40
 8001c46:	fb01 f303 	mul.w	r3, r1, r3
 8001c4a:	441a      	add	r2, r3
 8001c4c:	68bb      	ldr	r3, [r7, #8]
 8001c4e:	609a      	str	r2, [r3, #8]
 8001c50:	68bb      	ldr	r3, [r7, #8]
 8001c52:	2200      	movs	r2, #0
 8001c54:	639a      	str	r2, [r3, #56]	; 0x38
 8001c56:	68bb      	ldr	r3, [r7, #8]
 8001c58:	681a      	ldr	r2, [r3, #0]
 8001c5a:	68bb      	ldr	r3, [r7, #8]
 8001c5c:	605a      	str	r2, [r3, #4]
 8001c5e:	68bb      	ldr	r3, [r7, #8]
 8001c60:	681a      	ldr	r2, [r3, #0]
 8001c62:	68bb      	ldr	r3, [r7, #8]
 8001c64:	6bdb      	ldr	r3, [r3, #60]	; 0x3c
 8001c66:	3b01      	subs	r3, #1
 8001c68:	68b9      	ldr	r1, [r7, #8]
 8001c6a:	6c09      	ldr	r1, [r1, #64]	; 0x40
 8001c6c:	fb01 f303 	mul.w	r3, r1, r3
 8001c70:	441a      	add	r2, r3
 8001c72:	68bb      	ldr	r3, [r7, #8]
 8001c74:	60da      	str	r2, [r3, #12]
 8001c76:	68bb      	ldr	r3, [r7, #8]
 8001c78:	22ff      	movs	r2, #255	; 0xff
 8001c7a:	f883 2044 	strb.w	r2, [r3, #68]	; 0x44
 8001c7e:	68bb      	ldr	r3, [r7, #8]
 8001c80:	22ff      	movs	r2, #255	; 0xff
 8001c82:	f883 2045 	strb.w	r2, [r3, #69]	; 0x45
 8001c86:	683b      	ldr	r3, [r7, #0]
 8001c88:	2b00      	cmp	r3, #0
 8001c8a:	d114      	bne.n	8001cb6 <xQueueGenericReset+0xba>
 8001c8c:	68bb      	ldr	r3, [r7, #8]
 8001c8e:	691b      	ldr	r3, [r3, #16]
 8001c90:	2b00      	cmp	r3, #0
 8001c92:	d01a      	beq.n	8001cca <xQueueGenericReset+0xce>
 8001c94:	68bb      	ldr	r3, [r7, #8]
 8001c96:	3310      	adds	r3, #16
 8001c98:	4618      	mov	r0, r3
 8001c9a:	f7ff f81f 	bl	8000cdc <xTaskRemoveFromEventList>
 8001c9e:	4603      	mov	r3, r0
 8001ca0:	2b00      	cmp	r3, #0
 8001ca2:	d012      	beq.n	8001cca <xQueueGenericReset+0xce>
 8001ca4:	4b0e      	ldr	r3, [pc, #56]	; (8001ce0 <xQueueGenericReset+0xe4>)
 8001ca6:	f04f 5280 	mov.w	r2, #268435456	; 0x10000000
 8001caa:	601a      	str	r2, [r3, #0]
 8001cac:	f3bf 8f4f 	dsb	sy
 8001cb0:	f3bf 8f6f 	isb	sy
 8001cb4:	e009      	b.n	8001cca <xQueueGenericReset+0xce>
 8001cb6:	68bb      	ldr	r3, [r7, #8]
 8001cb8:	3310      	adds	r3, #16
 8001cba:	4618      	mov	r0, r3
 8001cbc:	f000 fdde 	bl	800287c <vListInitialise>
 8001cc0:	68bb      	ldr	r3, [r7, #8]
 8001cc2:	3324      	adds	r3, #36	; 0x24
 8001cc4:	4618      	mov	r0, r3
 8001cc6:	f000 fdd9 	bl	800287c <vListInitialise>
 8001cca:	f002 f8ff 	bl	8003ecc <vPortExitCritical>
 8001cce:	e001      	b.n	8001cd4 <xQueueGenericReset+0xd8>
 8001cd0:	2300      	movs	r3, #0
 8001cd2:	60fb      	str	r3, [r7, #12]
 8001cd4:	68fb      	ldr	r3, [r7, #12]
 8001cd6:	4618      	mov	r0, r3
 8001cd8:	3710      	adds	r7, #16
 8001cda:	46bd      	mov	sp, r7
 8001cdc:	bd80      	pop	{r7, pc}
 8001cde:	bf00      	nop
 8001ce0:	e000ed04 	and	lr, r0, r4, lsl #26

08001ce4 <xQueueGenericCreate>:
 8001ce4:	b580      	push	{r7, lr}
 8001ce6:	b08a      	sub	sp, #40	; 0x28
 8001ce8:	af02      	add	r7, sp, #8
 8001cea:	60f8      	str	r0, [r7, #12]
 8001cec:	60b9      	str	r1, [r7, #8]
 8001cee:	4613      	mov	r3, r2
 8001cf0:	71fb      	strb	r3, [r7, #7]
 8001cf2:	2300      	movs	r3, #0
 8001cf4:	61fb      	str	r3, [r7, #28]
 8001cf6:	68fb      	ldr	r3, [r7, #12]
 8001cf8:	2b00      	cmp	r3, #0
 8001cfa:	d02d      	beq.n	8001d58 <xQueueGenericCreate+0x74>
 8001cfc:	2100      	movs	r1, #0
 8001cfe:	68ba      	ldr	r2, [r7, #8]
 8001d00:	68fb      	ldr	r3, [r7, #12]
 8001d02:	fba3 2302 	umull	r2, r3, r3, r2
 8001d06:	2b00      	cmp	r3, #0
 8001d08:	d000      	beq.n	8001d0c <xQueueGenericCreate+0x28>
 8001d0a:	2101      	movs	r1, #1
 8001d0c:	460b      	mov	r3, r1
 8001d0e:	2b00      	cmp	r3, #0
 8001d10:	d122      	bne.n	8001d58 <xQueueGenericCreate+0x74>
 8001d12:	68fb      	ldr	r3, [r7, #12]
 8001d14:	68ba      	ldr	r2, [r7, #8]
 8001d16:	fb02 f303 	mul.w	r3, r2, r3
 8001d1a:	f113 0f49 	cmn.w	r3, #73	; 0x49
 8001d1e:	d81b      	bhi.n	8001d58 <xQueueGenericCreate+0x74>
 8001d20:	68fb      	ldr	r3, [r7, #12]
 8001d22:	68ba      	ldr	r2, [r7, #8]
 8001d24:	fb02 f303 	mul.w	r3, r2, r3
 8001d28:	61bb      	str	r3, [r7, #24]
 8001d2a:	69bb      	ldr	r3, [r7, #24]
 8001d2c:	3348      	adds	r3, #72	; 0x48
 8001d2e:	4618      	mov	r0, r3
 8001d30:	f001 fd7e 	bl	8003830 <pvPortMalloc>
 8001d34:	61f8      	str	r0, [r7, #28]
 8001d36:	69fb      	ldr	r3, [r7, #28]
 8001d38:	2b00      	cmp	r3, #0
 8001d3a:	d00d      	beq.n	8001d58 <xQueueGenericCreate+0x74>
 8001d3c:	69fb      	ldr	r3, [r7, #28]
 8001d3e:	617b      	str	r3, [r7, #20]
 8001d40:	697b      	ldr	r3, [r7, #20]
 8001d42:	3348      	adds	r3, #72	; 0x48
 8001d44:	617b      	str	r3, [r7, #20]
 8001d46:	79fa      	ldrb	r2, [r7, #7]
 8001d48:	69fb      	ldr	r3, [r7, #28]
 8001d4a:	9300      	str	r3, [sp, #0]
 8001d4c:	4613      	mov	r3, r2
 8001d4e:	697a      	ldr	r2, [r7, #20]
 8001d50:	68b9      	ldr	r1, [r7, #8]
 8001d52:	68f8      	ldr	r0, [r7, #12]
 8001d54:	f000 f805 	bl	8001d62 <prvInitialiseNewQueue>
 8001d58:	69fb      	ldr	r3, [r7, #28]
 8001d5a:	4618      	mov	r0, r3
 8001d5c:	3720      	adds	r7, #32
 8001d5e:	46bd      	mov	sp, r7
 8001d60:	bd80      	pop	{r7, pc}

08001d62 <prvInitialiseNewQueue>:
 8001d62:	b580      	push	{r7, lr}
 8001d64:	b084      	sub	sp, #16
 8001d66:	af00      	add	r7, sp, #0
 8001d68:	60f8      	str	r0, [r7, #12]
 8001d6a:	60b9      	str	r1, [r7, #8]
 8001d6c:	607a      	str	r2, [r7, #4]
 8001d6e:	70fb      	strb	r3, [r7, #3]
 8001d70:	68bb      	ldr	r3, [r7, #8]
 8001d72:	2b00      	cmp	r3, #0
 8001d74:	d103      	bne.n	8001d7e <prvInitialiseNewQueue+0x1c>
 8001d76:	69bb      	ldr	r3, [r7, #24]
 8001d78:	69ba      	ldr	r2, [r7, #24]
 8001d7a:	601a      	str	r2, [r3, #0]
 8001d7c:	e002      	b.n	8001d84 <prvInitialiseNewQueue+0x22>
 8001d7e:	69bb      	ldr	r3, [r7, #24]
 8001d80:	687a      	ldr	r2, [r7, #4]
 8001d82:	601a      	str	r2, [r3, #0]
 8001d84:	69bb      	ldr	r3, [r7, #24]
 8001d86:	68fa      	ldr	r2, [r7, #12]
 8001d88:	63da      	str	r2, [r3, #60]	; 0x3c
 8001d8a:	69bb      	ldr	r3, [r7, #24]
 8001d8c:	68ba      	ldr	r2, [r7, #8]
 8001d8e:	641a      	str	r2, [r3, #64]	; 0x40
 8001d90:	2101      	movs	r1, #1
 8001d92:	69b8      	ldr	r0, [r7, #24]
 8001d94:	f7ff ff32 	bl	8001bfc <xQueueGenericReset>
 8001d98:	bf00      	nop
 8001d9a:	3710      	adds	r7, #16
 8001d9c:	46bd      	mov	sp, r7
 8001d9e:	bd80      	pop	{r7, pc}

08001da0 <xQueueGenericSend>:
 8001da0:	b580      	push	{r7, lr}
 8001da2:	b08a      	sub	sp, #40	; 0x28
 8001da4:	af00      	add	r7, sp, #0
 8001da6:	60f8      	str	r0, [r7, #12]
 8001da8:	60b9      	str	r1, [r7, #8]
 8001daa:	607a      	str	r2, [r7, #4]
 8001dac:	603b      	str	r3, [r7, #0]
 8001dae:	2300      	movs	r3, #0
 8001db0:	627b      	str	r3, [r7, #36]	; 0x24
 8001db2:	68fb      	ldr	r3, [r7, #12]
 8001db4:	623b      	str	r3, [r7, #32]
 8001db6:	f002 f86e 	bl	8003e96 <vPortEnterCritical>
 8001dba:	6a3b      	ldr	r3, [r7, #32]
 8001dbc:	6b9a      	ldr	r2, [r3, #56]	; 0x38
 8001dbe:	6a3b      	ldr	r3, [r7, #32]
 8001dc0:	6bdb      	ldr	r3, [r3, #60]	; 0x3c
 8001dc2:	429a      	cmp	r2, r3
 8001dc4:	d302      	bcc.n	8001dcc <xQueueGenericSend+0x2c>
 8001dc6:	683b      	ldr	r3, [r7, #0]
 8001dc8:	2b02      	cmp	r3, #2
 8001dca:	d129      	bne.n	8001e20 <xQueueGenericSend+0x80>
 8001dcc:	683a      	ldr	r2, [r7, #0]
 8001dce:	68b9      	ldr	r1, [r7, #8]
 8001dd0:	6a38      	ldr	r0, [r7, #32]
 8001dd2:	f000 fc23 	bl	800261c <prvCopyDataToQueue>
 8001dd6:	61f8      	str	r0, [r7, #28]
 8001dd8:	6a3b      	ldr	r3, [r7, #32]
 8001dda:	6a5b      	ldr	r3, [r3, #36]	; 0x24
 8001ddc:	2b00      	cmp	r3, #0
 8001dde:	d010      	beq.n	8001e02 <xQueueGenericSend+0x62>
 8001de0:	6a3b      	ldr	r3, [r7, #32]
 8001de2:	3324      	adds	r3, #36	; 0x24
 8001de4:	4618      	mov	r0, r3
 8001de6:	f7fe ff79 	bl	8000cdc <xTaskRemoveFromEventList>
 8001dea:	4603      	mov	r3, r0
 8001dec:	2b00      	cmp	r3, #0
 8001dee:	d013      	beq.n	8001e18 <xQueueGenericSend+0x78>
 8001df0:	4b3f      	ldr	r3, [pc, #252]	; (8001ef0 <xQueueGenericSend+0x150>)
 8001df2:	f04f 5280 	mov.w	r2, #268435456	; 0x10000000
 8001df6:	601a      	str	r2, [r3, #0]
 8001df8:	f3bf 8f4f 	dsb	sy
 8001dfc:	f3bf 8f6f 	isb	sy
 8001e00:	e00a      	b.n	8001e18 <xQueueGenericSend+0x78>
 8001e02:	69fb      	ldr	r3, [r7, #28]
 8001e04:	2b00      	cmp	r3, #0
 8001e06:	d007      	beq.n	8001e18 <xQueueGenericSend+0x78>
 8001e08:	4b39      	ldr	r3, [pc, #228]	; (8001ef0 <xQueueGenericSend+0x150>)
 8001e0a:	f04f 5280 	mov.w	r2, #268435456	; 0x10000000
 8001e0e:	601a      	str	r2, [r3, #0]
 8001e10:	f3bf 8f4f 	dsb	sy
 8001e14:	f3bf 8f6f 	isb	sy
 8001e18:	f002 f858 	bl	8003ecc <vPortExitCritical>
 8001e1c:	2301      	movs	r3, #1
 8001e1e:	e063      	b.n	8001ee8 <xQueueGenericSend+0x148>
 8001e20:	687b      	ldr	r3, [r7, #4]
 8001e22:	2b00      	cmp	r3, #0
 8001e24:	d103      	bne.n	8001e2e <xQueueGenericSend+0x8e>
 8001e26:	f002 f851 	bl	8003ecc <vPortExitCritical>
 8001e2a:	2300      	movs	r3, #0
 8001e2c:	e05c      	b.n	8001ee8 <xQueueGenericSend+0x148>
 8001e2e:	6a7b      	ldr	r3, [r7, #36]	; 0x24
 8001e30:	2b00      	cmp	r3, #0
 8001e32:	d106      	bne.n	8001e42 <xQueueGenericSend+0xa2>
 8001e34:	f107 0314 	add.w	r3, r7, #20
 8001e38:	4618      	mov	r0, r3
 8001e3a:	f7ff f8d5 	bl	8000fe8 <vTaskInternalSetTimeOutState>
 8001e3e:	2301      	movs	r3, #1
 8001e40:	627b      	str	r3, [r7, #36]	; 0x24
 8001e42:	f002 f843 	bl	8003ecc <vPortExitCritical>
 8001e46:	f7fe fc17 	bl	8000678 <vTaskSuspendAll>
 8001e4a:	f002 f824 	bl	8003e96 <vPortEnterCritical>
 8001e4e:	6a3b      	ldr	r3, [r7, #32]
 8001e50:	f893 3044 	ldrb.w	r3, [r3, #68]	; 0x44
 8001e54:	b25b      	sxtb	r3, r3
 8001e56:	f1b3 3fff 	cmp.w	r3, #4294967295	; 0xffffffff
 8001e5a:	d103      	bne.n	8001e64 <xQueueGenericSend+0xc4>
 8001e5c:	6a3b      	ldr	r3, [r7, #32]
 8001e5e:	2200      	movs	r2, #0
 8001e60:	f883 2044 	strb.w	r2, [r3, #68]	; 0x44
 8001e64:	6a3b      	ldr	r3, [r7, #32]
 8001e66:	f893 3045 	ldrb.w	r3, [r3, #69]	; 0x45
 8001e6a:	b25b      	sxtb	r3, r3
 8001e6c:	f1b3 3fff 	cmp.w	r3, #4294967295	; 0xffffffff
 8001e70:	d103      	bne.n	8001e7a <xQueueGenericSend+0xda>
 8001e72:	6a3b      	ldr	r3, [r7, #32]
 8001e74:	2200      	movs	r2, #0
 8001e76:	f883 2045 	strb.w	r2, [r3, #69]	; 0x45
 8001e7a:	f002 f827 	bl	8003ecc <vPortExitCritical>
 8001e7e:	1d3a      	adds	r2, r7, #4
 8001e80:	f107 0314 	add.w	r3, r7, #20
 8001e84:	4611      	mov	r1, r2
 8001e86:	4618      	mov	r0, r3
 8001e88:	f7ff f8c4 	bl	8001014 <xTaskCheckForTimeOut>
 8001e8c:	4603      	mov	r3, r0
 8001e8e:	2b00      	cmp	r3, #0
 8001e90:	d124      	bne.n	8001edc <xQueueGenericSend+0x13c>
 8001e92:	6a38      	ldr	r0, [r7, #32]
 8001e94:	f000 fcc2 	bl	800281c <prvIsQueueFull>
 8001e98:	4603      	mov	r3, r0
 8001e9a:	2b00      	cmp	r3, #0
 8001e9c:	d018      	beq.n	8001ed0 <xQueueGenericSend+0x130>
 8001e9e:	6a3b      	ldr	r3, [r7, #32]
 8001ea0:	3310      	adds	r3, #16
 8001ea2:	687a      	ldr	r2, [r7, #4]
 8001ea4:	4611      	mov	r1, r2
 8001ea6:	4618      	mov	r0, r3
 8001ea8:	f7fe feca 	bl	8000c40 <vTaskPlaceOnEventList>
 8001eac:	6a38      	ldr	r0, [r7, #32]
 8001eae:	f000 fc37 	bl	8002720 <prvUnlockQueue>
 8001eb2:	f7fe fbef 	bl	8000694 <xTaskResumeAll>
 8001eb6:	4603      	mov	r3, r0
 8001eb8:	2b00      	cmp	r3, #0
 8001eba:	f47f af7c 	bne.w	8001db6 <xQueueGenericSend+0x16>
 8001ebe:	4b0c      	ldr	r3, [pc, #48]	; (8001ef0 <xQueueGenericSend+0x150>)
 8001ec0:	f04f 5280 	mov.w	r2, #268435456	; 0x10000000
 8001ec4:	601a      	str	r2, [r3, #0]
 8001ec6:	f3bf 8f4f 	dsb	sy
 8001eca:	f3bf 8f6f 	isb	sy
 8001ece:	e772      	b.n	8001db6 <xQueueGenericSend+0x16>
 8001ed0:	6a38      	ldr	r0, [r7, #32]
 8001ed2:	f000 fc25 	bl	8002720 <prvUnlockQueue>
 8001ed6:	f7fe fbdd 	bl	8000694 <xTaskResumeAll>
 8001eda:	e76c      	b.n	8001db6 <xQueueGenericSend+0x16>
 8001edc:	6a38      	ldr	r0, [r7, #32]
 8001ede:	f000 fc1f 	bl	8002720 <prvUnlockQueue>
 8001ee2:	f7fe fbd7 	bl	8000694 <xTaskResumeAll>
 8001ee6:	2300      	movs	r3, #0
 8001ee8:	4618      	mov	r0, r3
 8001eea:	3728      	adds	r7, #40	; 0x28
 8001eec:	46bd      	mov	sp, r7
 8001eee:	bd80      	pop	{r7, pc}
 8001ef0:	e000ed04 	and	lr, r0, r4, lsl #26

08001ef4 <xQueueGenericSendFromISR>:
 8001ef4:	b580      	push	{r7, lr}
 8001ef6:	b08e      	sub	sp, #56	; 0x38
 8001ef8:	af00      	add	r7, sp, #0
 8001efa:	60f8      	str	r0, [r7, #12]
 8001efc:	60b9      	str	r1, [r7, #8]
 8001efe:	607a      	str	r2, [r7, #4]
 8001f00:	603b      	str	r3, [r7, #0]
 8001f02:	68fb      	ldr	r3, [r7, #12]
 8001f04:	633b      	str	r3, [r7, #48]	; 0x30
 8001f06:	f3ef 8211 	mrs	r2, BASEPRI
 8001f0a:	f04f 0350 	mov.w	r3, #80	; 0x50
 8001f0e:	f383 8811 	msr	BASEPRI, r3
 8001f12:	f3bf 8f6f 	isb	sy
 8001f16:	f3bf 8f4f 	dsb	sy
 8001f1a:	61fa      	str	r2, [r7, #28]
 8001f1c:	61bb      	str	r3, [r7, #24]
 8001f1e:	69fb      	ldr	r3, [r7, #28]
 8001f20:	62fb      	str	r3, [r7, #44]	; 0x2c
 8001f22:	6b3b      	ldr	r3, [r7, #48]	; 0x30
 8001f24:	6b9a      	ldr	r2, [r3, #56]	; 0x38
 8001f26:	6b3b      	ldr	r3, [r7, #48]	; 0x30
 8001f28:	6bdb      	ldr	r3, [r3, #60]	; 0x3c
 8001f2a:	429a      	cmp	r2, r3
 8001f2c:	d302      	bcc.n	8001f34 <xQueueGenericSendFromISR+0x40>
 8001f2e:	683b      	ldr	r3, [r7, #0]
 8001f30:	2b02      	cmp	r3, #2
 8001f32:	d137      	bne.n	8001fa4 <xQueueGenericSendFromISR+0xb0>
 8001f34:	6b3b      	ldr	r3, [r7, #48]	; 0x30
 8001f36:	f893 3045 	ldrb.w	r3, [r3, #69]	; 0x45
 8001f3a:	f887 302b 	strb.w	r3, [r7, #43]	; 0x2b
 8001f3e:	6b3b      	ldr	r3, [r7, #48]	; 0x30
 8001f40:	6b9b      	ldr	r3, [r3, #56]	; 0x38
 8001f42:	627b      	str	r3, [r7, #36]	; 0x24
 8001f44:	683a      	ldr	r2, [r7, #0]
 8001f46:	68b9      	ldr	r1, [r7, #8]
 8001f48:	6b38      	ldr	r0, [r7, #48]	; 0x30
 8001f4a:	f000 fb67 	bl	800261c <prvCopyDataToQueue>
 8001f4e:	f997 302b 	ldrsb.w	r3, [r7, #43]	; 0x2b
 8001f52:	f1b3 3fff 	cmp.w	r3, #4294967295	; 0xffffffff
 8001f56:	d112      	bne.n	8001f7e <xQueueGenericSendFromISR+0x8a>
 8001f58:	6b3b      	ldr	r3, [r7, #48]	; 0x30
 8001f5a:	6a5b      	ldr	r3, [r3, #36]	; 0x24
 8001f5c:	2b00      	cmp	r3, #0
 8001f5e:	d01e      	beq.n	8001f9e <xQueueGenericSendFromISR+0xaa>
 8001f60:	6b3b      	ldr	r3, [r7, #48]	; 0x30
 8001f62:	3324      	adds	r3, #36	; 0x24
 8001f64:	4618      	mov	r0, r3
 8001f66:	f7fe feb9 	bl	8000cdc <xTaskRemoveFromEventList>
 8001f6a:	4603      	mov	r3, r0
 8001f6c:	2b00      	cmp	r3, #0
 8001f6e:	d016      	beq.n	8001f9e <xQueueGenericSendFromISR+0xaa>
 8001f70:	687b      	ldr	r3, [r7, #4]
 8001f72:	2b00      	cmp	r3, #0
 8001f74:	d013      	beq.n	8001f9e <xQueueGenericSendFromISR+0xaa>
 8001f76:	687b      	ldr	r3, [r7, #4]
 8001f78:	2201      	movs	r2, #1
 8001f7a:	601a      	str	r2, [r3, #0]
 8001f7c:	e00f      	b.n	8001f9e <xQueueGenericSendFromISR+0xaa>
 8001f7e:	f7fe fca3 	bl	80008c8 <uxTaskGetNumberOfTasks>
 8001f82:	6238      	str	r0, [r7, #32]
 8001f84:	f997 302b 	ldrsb.w	r3, [r7, #43]	; 0x2b
 8001f88:	6a3a      	ldr	r2, [r7, #32]
 8001f8a:	429a      	cmp	r2, r3
 8001f8c:	d907      	bls.n	8001f9e <xQueueGenericSendFromISR+0xaa>
 8001f8e:	f897 302b 	ldrb.w	r3, [r7, #43]	; 0x2b
 8001f92:	3301      	adds	r3, #1
 8001f94:	b2db      	uxtb	r3, r3
 8001f96:	b25a      	sxtb	r2, r3
 8001f98:	6b3b      	ldr	r3, [r7, #48]	; 0x30
 8001f9a:	f883 2045 	strb.w	r2, [r3, #69]	; 0x45
 8001f9e:	2301      	movs	r3, #1
 8001fa0:	637b      	str	r3, [r7, #52]	; 0x34
 8001fa2:	e001      	b.n	8001fa8 <xQueueGenericSendFromISR+0xb4>
 8001fa4:	2300      	movs	r3, #0
 8001fa6:	637b      	str	r3, [r7, #52]	; 0x34
 8001fa8:	6afb      	ldr	r3, [r7, #44]	; 0x2c
 8001faa:	617b      	str	r3, [r7, #20]
 8001fac:	697b      	ldr	r3, [r7, #20]
 8001fae:	f383 8811 	msr	BASEPRI, r3
 8001fb2:	bf00      	nop
 8001fb4:	6b7b      	ldr	r3, [r7, #52]	; 0x34
 8001fb6:	4618      	mov	r0, r3
 8001fb8:	3738      	adds	r7, #56	; 0x38
 8001fba:	46bd      	mov	sp, r7
 8001fbc:	bd80      	pop	{r7, pc}

08001fbe <xQueueGiveFromISR>:
 8001fbe:	b580      	push	{r7, lr}
 8001fc0:	b08c      	sub	sp, #48	; 0x30
 8001fc2:	af00      	add	r7, sp, #0
 8001fc4:	6078      	str	r0, [r7, #4]
 8001fc6:	6039      	str	r1, [r7, #0]
 8001fc8:	687b      	ldr	r3, [r7, #4]
 8001fca:	62bb      	str	r3, [r7, #40]	; 0x28
 8001fcc:	f3ef 8211 	mrs	r2, BASEPRI
 8001fd0:	f04f 0350 	mov.w	r3, #80	; 0x50
 8001fd4:	f383 8811 	msr	BASEPRI, r3
 8001fd8:	f3bf 8f6f 	isb	sy
 8001fdc:	f3bf 8f4f 	dsb	sy
 8001fe0:	617a      	str	r2, [r7, #20]
 8001fe2:	613b      	str	r3, [r7, #16]
 8001fe4:	697b      	ldr	r3, [r7, #20]
 8001fe6:	627b      	str	r3, [r7, #36]	; 0x24
 8001fe8:	6abb      	ldr	r3, [r7, #40]	; 0x28
 8001fea:	6b9b      	ldr	r3, [r3, #56]	; 0x38
 8001fec:	623b      	str	r3, [r7, #32]
 8001fee:	6abb      	ldr	r3, [r7, #40]	; 0x28
 8001ff0:	6bdb      	ldr	r3, [r3, #60]	; 0x3c
 8001ff2:	6a3a      	ldr	r2, [r7, #32]
 8001ff4:	429a      	cmp	r2, r3
 8001ff6:	d231      	bcs.n	800205c <xQueueGiveFromISR+0x9e>
 8001ff8:	6abb      	ldr	r3, [r7, #40]	; 0x28
 8001ffa:	f893 3045 	ldrb.w	r3, [r3, #69]	; 0x45
 8001ffe:	77fb      	strb	r3, [r7, #31]
 8002000:	6a3b      	ldr	r3, [r7, #32]
 8002002:	1c5a      	adds	r2, r3, #1
 8002004:	6abb      	ldr	r3, [r7, #40]	; 0x28
 8002006:	639a      	str	r2, [r3, #56]	; 0x38
 8002008:	f997 301f 	ldrsb.w	r3, [r7, #31]
 800200c:	f1b3 3fff 	cmp.w	r3, #4294967295	; 0xffffffff
 8002010:	d112      	bne.n	8002038 <xQueueGiveFromISR+0x7a>
 8002012:	6abb      	ldr	r3, [r7, #40]	; 0x28
 8002014:	6a5b      	ldr	r3, [r3, #36]	; 0x24
 8002016:	2b00      	cmp	r3, #0
 8002018:	d01d      	beq.n	8002056 <xQueueGiveFromISR+0x98>
 800201a:	6abb      	ldr	r3, [r7, #40]	; 0x28
 800201c:	3324      	adds	r3, #36	; 0x24
 800201e:	4618      	mov	r0, r3
 8002020:	f7fe fe5c 	bl	8000cdc <xTaskRemoveFromEventList>
 8002024:	4603      	mov	r3, r0
 8002026:	2b00      	cmp	r3, #0
 8002028:	d015      	beq.n	8002056 <xQueueGiveFromISR+0x98>
 800202a:	683b      	ldr	r3, [r7, #0]
 800202c:	2b00      	cmp	r3, #0
 800202e:	d012      	beq.n	8002056 <xQueueGiveFromISR+0x98>
 8002030:	683b      	ldr	r3, [r7, #0]
 8002032:	2201      	movs	r2, #1
 8002034:	601a      	str	r2, [r3, #0]
 8002036:	e00e      	b.n	8002056 <xQueueGiveFromISR+0x98>
 8002038:	f7fe fc46 	bl	80008c8 <uxTaskGetNumberOfTasks>
 800203c:	61b8      	str	r0, [r7, #24]
 800203e:	f997 301f 	ldrsb.w	r3, [r7, #31]
 8002042:	69ba      	ldr	r2, [r7, #24]
 8002044:	429a      	cmp	r2, r3
 8002046:	d906      	bls.n	8002056 <xQueueGiveFromISR+0x98>
 8002048:	7ffb      	ldrb	r3, [r7, #31]
 800204a:	3301      	adds	r3, #1
 800204c:	b2db      	uxtb	r3, r3
 800204e:	b25a      	sxtb	r2, r3
 8002050:	6abb      	ldr	r3, [r7, #40]	; 0x28
 8002052:	f883 2045 	strb.w	r2, [r3, #69]	; 0x45
 8002056:	2301      	movs	r3, #1
 8002058:	62fb      	str	r3, [r7, #44]	; 0x2c
 800205a:	e001      	b.n	8002060 <xQueueGiveFromISR+0xa2>
 800205c:	2300      	movs	r3, #0
 800205e:	62fb      	str	r3, [r7, #44]	; 0x2c
 8002060:	6a7b      	ldr	r3, [r7, #36]	; 0x24
 8002062:	60fb      	str	r3, [r7, #12]
 8002064:	68fb      	ldr	r3, [r7, #12]
 8002066:	f383 8811 	msr	BASEPRI, r3
 800206a:	bf00      	nop
 800206c:	6afb      	ldr	r3, [r7, #44]	; 0x2c
 800206e:	4618      	mov	r0, r3
 8002070:	3730      	adds	r7, #48	; 0x30
 8002072:	46bd      	mov	sp, r7
 8002074:	bd80      	pop	{r7, pc}

08002076 <xQueueReceive>:
 8002076:	b580      	push	{r7, lr}
 8002078:	b08a      	sub	sp, #40	; 0x28
 800207a:	af00      	add	r7, sp, #0
 800207c:	60f8      	str	r0, [r7, #12]
 800207e:	60b9      	str	r1, [r7, #8]
 8002080:	607a      	str	r2, [r7, #4]
 8002082:	2300      	movs	r3, #0
 8002084:	627b      	str	r3, [r7, #36]	; 0x24
 8002086:	68fb      	ldr	r3, [r7, #12]
 8002088:	623b      	str	r3, [r7, #32]
 800208a:	f001 ff04 	bl	8003e96 <vPortEnterCritical>
 800208e:	6a3b      	ldr	r3, [r7, #32]
 8002090:	6b9b      	ldr	r3, [r3, #56]	; 0x38
 8002092:	61fb      	str	r3, [r7, #28]
 8002094:	69fb      	ldr	r3, [r7, #28]
 8002096:	2b00      	cmp	r3, #0
 8002098:	d01f      	beq.n	80020da <xQueueReceive+0x64>
 800209a:	68b9      	ldr	r1, [r7, #8]
 800209c:	6a38      	ldr	r0, [r7, #32]
 800209e:	f000 fb19 	bl	80026d4 <prvCopyDataFromQueue>
 80020a2:	69fb      	ldr	r3, [r7, #28]
 80020a4:	1e5a      	subs	r2, r3, #1
 80020a6:	6a3b      	ldr	r3, [r7, #32]
 80020a8:	639a      	str	r2, [r3, #56]	; 0x38
 80020aa:	6a3b      	ldr	r3, [r7, #32]
 80020ac:	691b      	ldr	r3, [r3, #16]
 80020ae:	2b00      	cmp	r3, #0
 80020b0:	d00f      	beq.n	80020d2 <xQueueReceive+0x5c>
 80020b2:	6a3b      	ldr	r3, [r7, #32]
 80020b4:	3310      	adds	r3, #16
 80020b6:	4618      	mov	r0, r3
 80020b8:	f7fe fe10 	bl	8000cdc <xTaskRemoveFromEventList>
 80020bc:	4603      	mov	r3, r0
 80020be:	2b00      	cmp	r3, #0
 80020c0:	d007      	beq.n	80020d2 <xQueueReceive+0x5c>
 80020c2:	4b3d      	ldr	r3, [pc, #244]	; (80021b8 <xQueueReceive+0x142>)
 80020c4:	f04f 5280 	mov.w	r2, #268435456	; 0x10000000
 80020c8:	601a      	str	r2, [r3, #0]
 80020ca:	f3bf 8f4f 	dsb	sy
 80020ce:	f3bf 8f6f 	isb	sy
 80020d2:	f001 fefb 	bl	8003ecc <vPortExitCritical>
 80020d6:	2301      	movs	r3, #1
 80020d8:	e069      	b.n	80021ae <xQueueReceive+0x138>
 80020da:	687b      	ldr	r3, [r7, #4]
 80020dc:	2b00      	cmp	r3, #0
 80020de:	d103      	bne.n	80020e8 <xQueueReceive+0x72>
 80020e0:	f001 fef4 	bl	8003ecc <vPortExitCritical>
 80020e4:	2300      	movs	r3, #0
 80020e6:	e062      	b.n	80021ae <xQueueReceive+0x138>
 80020e8:	6a7b      	ldr	r3, [r7, #36]	; 0x24
 80020ea:	2b00      	cmp	r3, #0
 80020ec:	d106      	bne.n	80020fc <xQueueReceive+0x86>
 80020ee:	f107 0314 	add.w	r3, r7, #20
 80020f2:	4618      	mov	r0, r3
 80020f4:	f7fe ff78 	bl	8000fe8 <vTaskInternalSetTimeOutState>
 80020f8:	2301      	movs	r3, #1
 80020fa:	627b      	str	r3, [r7, #36]	; 0x24
 80020fc:	f001 fee6 	bl	8003ecc <vPortExitCritical>
 8002100:	f7fe faba 	bl	8000678 <vTaskSuspendAll>
 8002104:	f001 fec7 	bl	8003e96 <vPortEnterCritical>
 8002108:	6a3b      	ldr	r3, [r7, #32]
 800210a:	f893 3044 	ldrb.w	r3, [r3, #68]	; 0x44
 800210e:	b25b      	sxtb	r3, r3
 8002110:	f1b3 3fff 	cmp.w	r3, #4294967295	; 0xffffffff
 8002114:	d103      	bne.n	800211e <xQueueReceive+0xa8>
 8002116:	6a3b      	ldr	r3, [r7, #32]
 8002118:	2200      	movs	r2, #0
 800211a:	f883 2044 	strb.w	r2, [r3, #68]	; 0x44
 800211e:	6a3b      	ldr	r3, [r7, #32]
 8002120:	f893 3045 	ldrb.w	r3, [r3, #69]	; 0x45
 8002124:	b25b      	sxtb	r3, r3
 8002126:	f1b3 3fff 	cmp.w	r3, #4294967295	; 0xffffffff
 800212a:	d103      	bne.n	8002134 <xQueueReceive+0xbe>
 800212c:	6a3b      	ldr	r3, [r7, #32]
 800212e:	2200      	movs	r2, #0
 8002130:	f883 2045 	strb.w	r2, [r3, #69]	; 0x45
 8002134:	f001 feca 	bl	8003ecc <vPortExitCritical>
 8002138:	1d3a      	adds	r2, r7, #4
 800213a:	f107 0314 	add.w	r3, r7, #20
 800213e:	4611      	mov	r1, r2
 8002140:	4618      	mov	r0, r3
 8002142:	f7fe ff67 	bl	8001014 <xTaskCheckForTimeOut>
 8002146:	4603      	mov	r3, r0
 8002148:	2b00      	cmp	r3, #0
 800214a:	d123      	bne.n	8002194 <xQueueReceive+0x11e>
 800214c:	6a38      	ldr	r0, [r7, #32]
 800214e:	f000 fb39 	bl	80027c4 <prvIsQueueEmpty>
 8002152:	4603      	mov	r3, r0
 8002154:	2b00      	cmp	r3, #0
 8002156:	d017      	beq.n	8002188 <xQueueReceive+0x112>
 8002158:	6a3b      	ldr	r3, [r7, #32]
 800215a:	3324      	adds	r3, #36	; 0x24
 800215c:	687a      	ldr	r2, [r7, #4]
 800215e:	4611      	mov	r1, r2
 8002160:	4618      	mov	r0, r3
 8002162:	f7fe fd6d 	bl	8000c40 <vTaskPlaceOnEventList>
 8002166:	6a38      	ldr	r0, [r7, #32]
 8002168:	f000 fada 	bl	8002720 <prvUnlockQueue>
 800216c:	f7fe fa92 	bl	8000694 <xTaskResumeAll>
 8002170:	4603      	mov	r3, r0
 8002172:	2b00      	cmp	r3, #0
 8002174:	d189      	bne.n	800208a <xQueueReceive+0x14>
 8002176:	4b10      	ldr	r3, [pc, #64]	; (80021b8 <xQueueReceive+0x142>)
 8002178:	f04f 5280 	mov.w	r2, #268435456	; 0x10000000
 800217c:	601a      	str	r2, [r3, #0]
 800217e:	f3bf 8f4f 	dsb	sy
 8002182:	f3bf 8f6f 	isb	sy
 8002186:	e780      	b.n	800208a <xQueueReceive+0x14>
 8002188:	6a38      	ldr	r0, [r7, #32]
 800218a:	f000 fac9 	bl	8002720 <prvUnlockQueue>
 800218e:	f7fe fa81 	bl	8000694 <xTaskResumeAll>
 8002192:	e77a      	b.n	800208a <xQueueReceive+0x14>
 8002194:	6a38      	ldr	r0, [r7, #32]
 8002196:	f000 fac3 	bl	8002720 <prvUnlockQueue>
 800219a:	f7fe fa7b 	bl	8000694 <xTaskResumeAll>
 800219e:	6a38      	ldr	r0, [r7, #32]
 80021a0:	f000 fb10 	bl	80027c4 <prvIsQueueEmpty>
 80021a4:	4603      	mov	r3, r0
 80021a6:	2b00      	cmp	r3, #0
 80021a8:	f43f af6f 	beq.w	800208a <xQueueReceive+0x14>
 80021ac:	2300      	movs	r3, #0
 80021ae:	4618      	mov	r0, r3
 80021b0:	3728      	adds	r7, #40	; 0x28
 80021b2:	46bd      	mov	sp, r7
 80021b4:	bd80      	pop	{r7, pc}
 80021b6:	bf00      	nop
 80021b8:	e000ed04 	and	lr, r0, r4, lsl #26

080021bc <xQueueSemaphoreTake>:
 80021bc:	b580      	push	{r7, lr}
 80021be:	b088      	sub	sp, #32
 80021c0:	af00      	add	r7, sp, #0
 80021c2:	6078      	str	r0, [r7, #4]
 80021c4:	6039      	str	r1, [r7, #0]
 80021c6:	2300      	movs	r3, #0
 80021c8:	61fb      	str	r3, [r7, #28]
 80021ca:	687b      	ldr	r3, [r7, #4]
 80021cc:	61bb      	str	r3, [r7, #24]
 80021ce:	f001 fe62 	bl	8003e96 <vPortEnterCritical>
 80021d2:	69bb      	ldr	r3, [r7, #24]
 80021d4:	6b9b      	ldr	r3, [r3, #56]	; 0x38
 80021d6:	617b      	str	r3, [r7, #20]
 80021d8:	697b      	ldr	r3, [r7, #20]
 80021da:	2b00      	cmp	r3, #0
 80021dc:	d01b      	beq.n	8002216 <xQueueSemaphoreTake+0x5a>
 80021de:	697b      	ldr	r3, [r7, #20]
 80021e0:	1e5a      	subs	r2, r3, #1
 80021e2:	69bb      	ldr	r3, [r7, #24]
 80021e4:	639a      	str	r2, [r3, #56]	; 0x38
 80021e6:	69bb      	ldr	r3, [r7, #24]
 80021e8:	691b      	ldr	r3, [r3, #16]
 80021ea:	2b00      	cmp	r3, #0
 80021ec:	d00f      	beq.n	800220e <xQueueSemaphoreTake+0x52>
 80021ee:	69bb      	ldr	r3, [r7, #24]
 80021f0:	3310      	adds	r3, #16
 80021f2:	4618      	mov	r0, r3
 80021f4:	f7fe fd72 	bl	8000cdc <xTaskRemoveFromEventList>
 80021f8:	4603      	mov	r3, r0
 80021fa:	2b00      	cmp	r3, #0
 80021fc:	d007      	beq.n	800220e <xQueueSemaphoreTake+0x52>
 80021fe:	4b3d      	ldr	r3, [pc, #244]	; (80022f4 <xQueueSemaphoreTake+0x138>)
 8002200:	f04f 5280 	mov.w	r2, #268435456	; 0x10000000
 8002204:	601a      	str	r2, [r3, #0]
 8002206:	f3bf 8f4f 	dsb	sy
 800220a:	f3bf 8f6f 	isb	sy
 800220e:	f001 fe5d 	bl	8003ecc <vPortExitCritical>
 8002212:	2301      	movs	r3, #1
 8002214:	e069      	b.n	80022ea <xQueueSemaphoreTake+0x12e>
 8002216:	683b      	ldr	r3, [r7, #0]
 8002218:	2b00      	cmp	r3, #0
 800221a:	d103      	bne.n	8002224 <xQueueSemaphoreTake+0x68>
 800221c:	f001 fe56 	bl	8003ecc <vPortExitCritical>
 8002220:	2300      	movs	r3, #0
 8002222:	e062      	b.n	80022ea <xQueueSemaphoreTake+0x12e>
 8002224:	69fb      	ldr	r3, [r7, #28]
 8002226:	2b00      	cmp	r3, #0
 8002228:	d106      	bne.n	8002238 <xQueueSemaphoreTake+0x7c>
 800222a:	f107 030c 	add.w	r3, r7, #12
 800222e:	4618      	mov	r0, r3
 8002230:	f7fe feda 	bl	8000fe8 <vTaskInternalSetTimeOutState>
 8002234:	2301      	movs	r3, #1
 8002236:	61fb      	str	r3, [r7, #28]
 8002238:	f001 fe48 	bl	8003ecc <vPortExitCritical>
 800223c:	f7fe fa1c 	bl	8000678 <vTaskSuspendAll>
 8002240:	f001 fe29 	bl	8003e96 <vPortEnterCritical>
 8002244:	69bb      	ldr	r3, [r7, #24]
 8002246:	f893 3044 	ldrb.w	r3, [r3, #68]	; 0x44
 800224a:	b25b      	sxtb	r3, r3
 800224c:	f1b3 3fff 	cmp.w	r3, #4294967295	; 0xffffffff
 8002250:	d103      	bne.n	800225a <xQueueSemaphoreTake+0x9e>
 8002252:	69bb      	ldr	r3, [r7, #24]
 8002254:	2200      	movs	r2, #0
 8002256:	f883 2044 	strb.w	r2, [r3, #68]	; 0x44
 800225a:	69bb      	ldr	r3, [r7, #24]
 800225c:	f893 3045 	ldrb.w	r3, [r3, #69]	; 0x45
 8002260:	b25b      	sxtb	r3, r3
 8002262:	f1b3 3fff 	cmp.w	r3, #4294967295	; 0xffffffff
 8002266:	d103      	bne.n	8002270 <xQueueSemaphoreTake+0xb4>
 8002268:	69bb      	ldr	r3, [r7, #24]
 800226a:	2200      	movs	r2, #0
 800226c:	f883 2045 	strb.w	r2, [r3, #69]	; 0x45
 8002270:	f001 fe2c 	bl	8003ecc <vPortExitCritical>
 8002274:	463a      	mov	r2, r7
 8002276:	f107 030c 	add.w	r3, r7, #12
 800227a:	4611      	mov	r1, r2
 800227c:	4618      	mov	r0, r3
 800227e:	f7fe fec9 	bl	8001014 <xTaskCheckForTimeOut>
 8002282:	4603      	mov	r3, r0
 8002284:	2b00      	cmp	r3, #0
 8002286:	d123      	bne.n	80022d0 <xQueueSemaphoreTake+0x114>
 8002288:	69b8      	ldr	r0, [r7, #24]
 800228a:	f000 fa9b 	bl	80027c4 <prvIsQueueEmpty>
 800228e:	4603      	mov	r3, r0
 8002290:	2b00      	cmp	r3, #0
 8002292:	d017      	beq.n	80022c4 <xQueueSemaphoreTake+0x108>
 8002294:	69bb      	ldr	r3, [r7, #24]
 8002296:	3324      	adds	r3, #36	; 0x24
 8002298:	683a      	ldr	r2, [r7, #0]
 800229a:	4611      	mov	r1, r2
 800229c:	4618      	mov	r0, r3
 800229e:	f7fe fccf 	bl	8000c40 <vTaskPlaceOnEventList>
 80022a2:	69b8      	ldr	r0, [r7, #24]
 80022a4:	f000 fa3c 	bl	8002720 <prvUnlockQueue>
 80022a8:	f7fe f9f4 	bl	8000694 <xTaskResumeAll>
 80022ac:	4603      	mov	r3, r0
 80022ae:	2b00      	cmp	r3, #0
 80022b0:	d18d      	bne.n	80021ce <xQueueSemaphoreTake+0x12>
 80022b2:	4b10      	ldr	r3, [pc, #64]	; (80022f4 <xQueueSemaphoreTake+0x138>)
 80022b4:	f04f 5280 	mov.w	r2, #268435456	; 0x10000000
 80022b8:	601a      	str	r2, [r3, #0]
 80022ba:	f3bf 8f4f 	dsb	sy
 80022be:	f3bf 8f6f 	isb	sy
 80022c2:	e784      	b.n	80021ce <xQueueSemaphoreTake+0x12>
 80022c4:	69b8      	ldr	r0, [r7, #24]
 80022c6:	f000 fa2b 	bl	8002720 <prvUnlockQueue>
 80022ca:	f7fe f9e3 	bl	8000694 <xTaskResumeAll>
 80022ce:	e77e      	b.n	80021ce <xQueueSemaphoreTake+0x12>
 80022d0:	69b8      	ldr	r0, [r7, #24]
 80022d2:	f000 fa25 	bl	8002720 <prvUnlockQueue>
 80022d6:	f7fe f9dd 	bl	8000694 <xTaskResumeAll>
 80022da:	69b8      	ldr	r0, [r7, #24]
 80022dc:	f000 fa72 	bl	80027c4 <prvIsQueueEmpty>
 80022e0:	4603      	mov	r3, r0
 80022e2:	2b00      	cmp	r3, #0
 80022e4:	f43f af73 	beq.w	80021ce <xQueueSemaphoreTake+0x12>
 80022e8:	2300      	movs	r3, #0
 80022ea:	4618      	mov	r0, r3
 80022ec:	3720      	adds	r7, #32
 80022ee:	46bd      	mov	sp, r7
 80022f0:	bd80      	pop	{r7, pc}
 80022f2:	bf00      	nop
 80022f4:	e000ed04 	and	lr, r0, r4, lsl #26

080022f8 <xQueuePeek>:
 80022f8:	b580      	push	{r7, lr}
 80022fa:	b08a      	sub	sp, #40	; 0x28
 80022fc:	af00      	add	r7, sp, #0
 80022fe:	60f8      	str	r0, [r7, #12]
 8002300:	60b9      	str	r1, [r7, #8]
 8002302:	607a      	str	r2, [r7, #4]
 8002304:	2300      	movs	r3, #0
 8002306:	627b      	str	r3, [r7, #36]	; 0x24
 8002308:	68fb      	ldr	r3, [r7, #12]
 800230a:	623b      	str	r3, [r7, #32]
 800230c:	f001 fdc3 	bl	8003e96 <vPortEnterCritical>
 8002310:	6a3b      	ldr	r3, [r7, #32]
 8002312:	6b9b      	ldr	r3, [r3, #56]	; 0x38
 8002314:	61fb      	str	r3, [r7, #28]
 8002316:	69fb      	ldr	r3, [r7, #28]
 8002318:	2b00      	cmp	r3, #0
 800231a:	d021      	beq.n	8002360 <xQueuePeek+0x68>
 800231c:	6a3b      	ldr	r3, [r7, #32]
 800231e:	68db      	ldr	r3, [r3, #12]
 8002320:	61bb      	str	r3, [r7, #24]
 8002322:	68b9      	ldr	r1, [r7, #8]
 8002324:	6a38      	ldr	r0, [r7, #32]
 8002326:	f000 f9d5 	bl	80026d4 <prvCopyDataFromQueue>
 800232a:	6a3b      	ldr	r3, [r7, #32]
 800232c:	69ba      	ldr	r2, [r7, #24]
 800232e:	60da      	str	r2, [r3, #12]
 8002330:	6a3b      	ldr	r3, [r7, #32]
 8002332:	6a5b      	ldr	r3, [r3, #36]	; 0x24
 8002334:	2b00      	cmp	r3, #0
 8002336:	d00f      	beq.n	8002358 <xQueuePeek+0x60>
 8002338:	6a3b      	ldr	r3, [r7, #32]
 800233a:	3324      	adds	r3, #36	; 0x24
 800233c:	4618      	mov	r0, r3
 800233e:	f7fe fccd 	bl	8000cdc <xTaskRemoveFromEventList>
 8002342:	4603      	mov	r3, r0
 8002344:	2b00      	cmp	r3, #0
 8002346:	d007      	beq.n	8002358 <xQueuePeek+0x60>
 8002348:	4b3c      	ldr	r3, [pc, #240]	; (800243c <xQueuePeek+0x144>)
 800234a:	f04f 5280 	mov.w	r2, #268435456	; 0x10000000
 800234e:	601a      	str	r2, [r3, #0]
 8002350:	f3bf 8f4f 	dsb	sy
 8002354:	f3bf 8f6f 	isb	sy
 8002358:	f001 fdb8 	bl	8003ecc <vPortExitCritical>
 800235c:	2301      	movs	r3, #1
 800235e:	e069      	b.n	8002434 <xQueuePeek+0x13c>
 8002360:	687b      	ldr	r3, [r7, #4]
 8002362:	2b00      	cmp	r3, #0
 8002364:	d103      	bne.n	800236e <xQueuePeek+0x76>
 8002366:	f001 fdb1 	bl	8003ecc <vPortExitCritical>
 800236a:	2300      	movs	r3, #0
 800236c:	e062      	b.n	8002434 <xQueuePeek+0x13c>
 800236e:	6a7b      	ldr	r3, [r7, #36]	; 0x24
 8002370:	2b00      	cmp	r3, #0
 8002372:	d106      	bne.n	8002382 <xQueuePeek+0x8a>
 8002374:	f107 0310 	add.w	r3, r7, #16
 8002378:	4618      	mov	r0, r3
 800237a:	f7fe fe35 	bl	8000fe8 <vTaskInternalSetTimeOutState>
 800237e:	2301      	movs	r3, #1
 8002380:	627b      	str	r3, [r7, #36]	; 0x24
 8002382:	f001 fda3 	bl	8003ecc <vPortExitCritical>
 8002386:	f7fe f977 	bl	8000678 <vTaskSuspendAll>
 800238a:	f001 fd84 	bl	8003e96 <vPortEnterCritical>
 800238e:	6a3b      	ldr	r3, [r7, #32]
 8002390:	f893 3044 	ldrb.w	r3, [r3, #68]	; 0x44
 8002394:	b25b      	sxtb	r3, r3
 8002396:	f1b3 3fff 	cmp.w	r3, #4294967295	; 0xffffffff
 800239a:	d103      	bne.n	80023a4 <xQueuePeek+0xac>
 800239c:	6a3b      	ldr	r3, [r7, #32]
 800239e:	2200      	movs	r2, #0
 80023a0:	f883 2044 	strb.w	r2, [r3, #68]	; 0x44
 80023a4:	6a3b      	ldr	r3, [r7, #32]
 80023a6:	f893 3045 	ldrb.w	r3, [r3, #69]	; 0x45
 80023aa:	b25b      	sxtb	r3, r3
 80023ac:	f1b3 3fff 	cmp.w	r3, #4294967295	; 0xffffffff
 80023b0:	d103      	bne.n	80023ba <xQueuePeek+0xc2>
 80023b2:	6a3b      	ldr	r3, [r7, #32]
 80023b4:	2200      	movs	r2, #0
 80023b6:	f883 2045 	strb.w	r2, [r3, #69]	; 0x45
 80023ba:	f001 fd87 	bl	8003ecc <vPortExitCritical>
 80023be:	1d3a      	adds	r2, r7, #4
 80023c0:	f107 0310 	add.w	r3, r7, #16
 80023c4:	4611      	mov	r1, r2
 80023c6:	4618      	mov	r0, r3
 80023c8:	f7fe fe24 	bl	8001014 <xTaskCheckForTimeOut>
 80023cc:	4603      	mov	r3, r0
 80023ce:	2b00      	cmp	r3, #0
 80023d0:	d123      	bne.n	800241a <xQueuePeek+0x122>
 80023d2:	6a38      	ldr	r0, [r7, #32]
 80023d4:	f000 f9f6 	bl	80027c4 <prvIsQueueEmpty>
 80023d8:	4603      	mov	r3, r0
 80023da:	2b00      	cmp	r3, #0
 80023dc:	d017      	beq.n	800240e <xQueuePeek+0x116>
 80023de:	6a3b      	ldr	r3, [r7, #32]
 80023e0:	3324      	adds	r3, #36	; 0x24
 80023e2:	687a      	ldr	r2, [r7, #4]
 80023e4:	4611      	mov	r1, r2
 80023e6:	4618      	mov	r0, r3
 80023e8:	f7fe fc2a 	bl	8000c40 <vTaskPlaceOnEventList>
 80023ec:	6a38      	ldr	r0, [r7, #32]
 80023ee:	f000 f997 	bl	8002720 <prvUnlockQueue>
 80023f2:	f7fe f94f 	bl	8000694 <xTaskResumeAll>
 80023f6:	4603      	mov	r3, r0
 80023f8:	2b00      	cmp	r3, #0
 80023fa:	d187      	bne.n	800230c <xQueuePeek+0x14>
 80023fc:	4b0f      	ldr	r3, [pc, #60]	; (800243c <xQueuePeek+0x144>)
 80023fe:	f04f 5280 	mov.w	r2, #268435456	; 0x10000000
 8002402:	601a      	str	r2, [r3, #0]
 8002404:	f3bf 8f4f 	dsb	sy
 8002408:	f3bf 8f6f 	isb	sy
 800240c:	e77e      	b.n	800230c <xQueuePeek+0x14>
 800240e:	6a38      	ldr	r0, [r7, #32]
 8002410:	f000 f986 	bl	8002720 <prvUnlockQueue>
 8002414:	f7fe f93e 	bl	8000694 <xTaskResumeAll>
 8002418:	e778      	b.n	800230c <xQueuePeek+0x14>
 800241a:	6a38      	ldr	r0, [r7, #32]
 800241c:	f000 f980 	bl	8002720 <prvUnlockQueue>
 8002420:	f7fe f938 	bl	8000694 <xTaskResumeAll>
 8002424:	6a38      	ldr	r0, [r7, #32]
 8002426:	f000 f9cd 	bl	80027c4 <prvIsQueueEmpty>
 800242a:	4603      	mov	r3, r0
 800242c:	2b00      	cmp	r3, #0
 800242e:	f43f af6d 	beq.w	800230c <xQueuePeek+0x14>
 8002432:	2300      	movs	r3, #0
 8002434:	4618      	mov	r0, r3
 8002436:	3728      	adds	r7, #40	; 0x28
 8002438:	46bd      	mov	sp, r7
 800243a:	bd80      	pop	{r7, pc}
 800243c:	e000ed04 	and	lr, r0, r4, lsl #26

08002440 <xQueueReceiveFromISR>:
 8002440:	b580      	push	{r7, lr}
 8002442:	b08e      	sub	sp, #56	; 0x38
 8002444:	af00      	add	r7, sp, #0
 8002446:	60f8      	str	r0, [r7, #12]
 8002448:	60b9      	str	r1, [r7, #8]
 800244a:	607a      	str	r2, [r7, #4]
 800244c:	68fb      	ldr	r3, [r7, #12]
 800244e:	633b      	str	r3, [r7, #48]	; 0x30
 8002450:	f3ef 8211 	mrs	r2, BASEPRI
 8002454:	f04f 0350 	mov.w	r3, #80	; 0x50
 8002458:	f383 8811 	msr	BASEPRI, r3
 800245c:	f3bf 8f6f 	isb	sy
 8002460:	f3bf 8f4f 	dsb	sy
 8002464:	61fa      	str	r2, [r7, #28]
 8002466:	61bb      	str	r3, [r7, #24]
 8002468:	69fb      	ldr	r3, [r7, #28]
 800246a:	62fb      	str	r3, [r7, #44]	; 0x2c
 800246c:	6b3b      	ldr	r3, [r7, #48]	; 0x30
 800246e:	6b9b      	ldr	r3, [r3, #56]	; 0x38
 8002470:	62bb      	str	r3, [r7, #40]	; 0x28
 8002472:	6abb      	ldr	r3, [r7, #40]	; 0x28
 8002474:	2b00      	cmp	r3, #0
 8002476:	d037      	beq.n	80024e8 <xQueueReceiveFromISR+0xa8>
 8002478:	6b3b      	ldr	r3, [r7, #48]	; 0x30
 800247a:	f893 3044 	ldrb.w	r3, [r3, #68]	; 0x44
 800247e:	f887 3027 	strb.w	r3, [r7, #39]	; 0x27
 8002482:	68b9      	ldr	r1, [r7, #8]
 8002484:	6b38      	ldr	r0, [r7, #48]	; 0x30
 8002486:	f000 f925 	bl	80026d4 <prvCopyDataFromQueue>
 800248a:	6abb      	ldr	r3, [r7, #40]	; 0x28
 800248c:	1e5a      	subs	r2, r3, #1
 800248e:	6b3b      	ldr	r3, [r7, #48]	; 0x30
 8002490:	639a      	str	r2, [r3, #56]	; 0x38
 8002492:	f997 3027 	ldrsb.w	r3, [r7, #39]	; 0x27
 8002496:	f1b3 3fff 	cmp.w	r3, #4294967295	; 0xffffffff
 800249a:	d112      	bne.n	80024c2 <xQueueReceiveFromISR+0x82>
 800249c:	6b3b      	ldr	r3, [r7, #48]	; 0x30
 800249e:	691b      	ldr	r3, [r3, #16]
 80024a0:	2b00      	cmp	r3, #0
 80024a2:	d01e      	beq.n	80024e2 <xQueueReceiveFromISR+0xa2>
 80024a4:	6b3b      	ldr	r3, [r7, #48]	; 0x30
 80024a6:	3310      	adds	r3, #16
 80024a8:	4618      	mov	r0, r3
 80024aa:	f7fe fc17 	bl	8000cdc <xTaskRemoveFromEventList>
 80024ae:	4603      	mov	r3, r0
 80024b0:	2b00      	cmp	r3, #0
 80024b2:	d016      	beq.n	80024e2 <xQueueReceiveFromISR+0xa2>
 80024b4:	687b      	ldr	r3, [r7, #4]
 80024b6:	2b00      	cmp	r3, #0
 80024b8:	d013      	beq.n	80024e2 <xQueueReceiveFromISR+0xa2>
 80024ba:	687b      	ldr	r3, [r7, #4]
 80024bc:	2201      	movs	r2, #1
 80024be:	601a      	str	r2, [r3, #0]
 80024c0:	e00f      	b.n	80024e2 <xQueueReceiveFromISR+0xa2>
 80024c2:	f7fe fa01 	bl	80008c8 <uxTaskGetNumberOfTasks>
 80024c6:	6238      	str	r0, [r7, #32]
 80024c8:	f997 3027 	ldrsb.w	r3, [r7, #39]	; 0x27
 80024cc:	6a3a      	ldr	r2, [r7, #32]
 80024ce:	429a      	cmp	r2, r3
 80024d0:	d907      	bls.n	80024e2 <xQueueReceiveFromISR+0xa2>
 80024d2:	f897 3027 	ldrb.w	r3, [r7, #39]	; 0x27
 80024d6:	3301      	adds	r3, #1
 80024d8:	b2db      	uxtb	r3, r3
 80024da:	b25a      	sxtb	r2, r3
 80024dc:	6b3b      	ldr	r3, [r7, #48]	; 0x30
 80024de:	f883 2044 	strb.w	r2, [r3, #68]	; 0x44
 80024e2:	2301      	movs	r3, #1
 80024e4:	637b      	str	r3, [r7, #52]	; 0x34
 80024e6:	e001      	b.n	80024ec <xQueueReceiveFromISR+0xac>
 80024e8:	2300      	movs	r3, #0
 80024ea:	637b      	str	r3, [r7, #52]	; 0x34
 80024ec:	6afb      	ldr	r3, [r7, #44]	; 0x2c
 80024ee:	617b      	str	r3, [r7, #20]
 80024f0:	697b      	ldr	r3, [r7, #20]
 80024f2:	f383 8811 	msr	BASEPRI, r3
 80024f6:	bf00      	nop
 80024f8:	6b7b      	ldr	r3, [r7, #52]	; 0x34
 80024fa:	4618      	mov	r0, r3
 80024fc:	3738      	adds	r7, #56	; 0x38
 80024fe:	46bd      	mov	sp, r7
 8002500:	bd80      	pop	{r7, pc}

08002502 <xQueuePeekFromISR>:
 8002502:	b580      	push	{r7, lr}
 8002504:	b08a      	sub	sp, #40	; 0x28
 8002506:	af00      	add	r7, sp, #0
 8002508:	6078      	str	r0, [r7, #4]
 800250a:	6039      	str	r1, [r7, #0]
 800250c:	687b      	ldr	r3, [r7, #4]
 800250e:	623b      	str	r3, [r7, #32]
 8002510:	f3ef 8211 	mrs	r2, BASEPRI
 8002514:	f04f 0350 	mov.w	r3, #80	; 0x50
 8002518:	f383 8811 	msr	BASEPRI, r3
 800251c:	f3bf 8f6f 	isb	sy
 8002520:	f3bf 8f4f 	dsb	sy
 8002524:	617a      	str	r2, [r7, #20]
 8002526:	613b      	str	r3, [r7, #16]
 8002528:	697b      	ldr	r3, [r7, #20]
 800252a:	61fb      	str	r3, [r7, #28]
 800252c:	6a3b      	ldr	r3, [r7, #32]
 800252e:	6b9b      	ldr	r3, [r3, #56]	; 0x38
 8002530:	2b00      	cmp	r3, #0
 8002532:	d00c      	beq.n	800254e <xQueuePeekFromISR+0x4c>
 8002534:	6a3b      	ldr	r3, [r7, #32]
 8002536:	68db      	ldr	r3, [r3, #12]
 8002538:	61bb      	str	r3, [r7, #24]
 800253a:	6839      	ldr	r1, [r7, #0]
 800253c:	6a38      	ldr	r0, [r7, #32]
 800253e:	f000 f8c9 	bl	80026d4 <prvCopyDataFromQueue>
 8002542:	6a3b      	ldr	r3, [r7, #32]
 8002544:	69ba      	ldr	r2, [r7, #24]
 8002546:	60da      	str	r2, [r3, #12]
 8002548:	2301      	movs	r3, #1
 800254a:	627b      	str	r3, [r7, #36]	; 0x24
 800254c:	e001      	b.n	8002552 <xQueuePeekFromISR+0x50>
 800254e:	2300      	movs	r3, #0
 8002550:	627b      	str	r3, [r7, #36]	; 0x24
 8002552:	69fb      	ldr	r3, [r7, #28]
 8002554:	60fb      	str	r3, [r7, #12]
 8002556:	68fb      	ldr	r3, [r7, #12]
 8002558:	f383 8811 	msr	BASEPRI, r3
 800255c:	bf00      	nop
 800255e:	6a7b      	ldr	r3, [r7, #36]	; 0x24
 8002560:	4618      	mov	r0, r3
 8002562:	3728      	adds	r7, #40	; 0x28
 8002564:	46bd      	mov	sp, r7
 8002566:	bd80      	pop	{r7, pc}

08002568 <uxQueueMessagesWaiting>:
 8002568:	b580      	push	{r7, lr}
 800256a:	b084      	sub	sp, #16
 800256c:	af00      	add	r7, sp, #0
 800256e:	6078      	str	r0, [r7, #4]
 8002570:	f001 fc91 	bl	8003e96 <vPortEnterCritical>
 8002574:	687b      	ldr	r3, [r7, #4]
 8002576:	6b9b      	ldr	r3, [r3, #56]	; 0x38
 8002578:	60fb      	str	r3, [r7, #12]
 800257a:	f001 fca7 	bl	8003ecc <vPortExitCritical>
 800257e:	68fb      	ldr	r3, [r7, #12]
 8002580:	4618      	mov	r0, r3
 8002582:	3710      	adds	r7, #16
 8002584:	46bd      	mov	sp, r7
 8002586:	bd80      	pop	{r7, pc}

08002588 <uxQueueSpacesAvailable>:
 8002588:	b580      	push	{r7, lr}
 800258a:	b084      	sub	sp, #16
 800258c:	af00      	add	r7, sp, #0
 800258e:	6078      	str	r0, [r7, #4]
 8002590:	687b      	ldr	r3, [r7, #4]
 8002592:	60fb      	str	r3, [r7, #12]
 8002594:	f001 fc7f 	bl	8003e96 <vPortEnterCritical>
 8002598:	68fb      	ldr	r3, [r7, #12]
 800259a:	6bda      	ldr	r2, [r3, #60]	; 0x3c
 800259c:	68fb      	ldr	r3, [r7, #12]
 800259e:	6b9b      	ldr	r3, [r3, #56]	; 0x38
 80025a0:	1ad3      	subs	r3, r2, r3
 80025a2:	60bb      	str	r3, [r7, #8]
 80025a4:	f001 fc92 	bl	8003ecc <vPortExitCritical>
 80025a8:	68bb      	ldr	r3, [r7, #8]
 80025aa:	4618      	mov	r0, r3
 80025ac:	3710      	adds	r7, #16
 80025ae:	46bd      	mov	sp, r7
 80025b0:	bd80      	pop	{r7, pc}

080025b2 <uxQueueMessagesWaitingFromISR>:
 80025b2:	b480      	push	{r7}
 80025b4:	b085      	sub	sp, #20
 80025b6:	af00      	add	r7, sp, #0
 80025b8:	6078      	str	r0, [r7, #4]
 80025ba:	687b      	ldr	r3, [r7, #4]
 80025bc:	60fb      	str	r3, [r7, #12]
 80025be:	68fb      	ldr	r3, [r7, #12]
 80025c0:	6b9b      	ldr	r3, [r3, #56]	; 0x38
 80025c2:	60bb      	str	r3, [r7, #8]
 80025c4:	68bb      	ldr	r3, [r7, #8]
 80025c6:	4618      	mov	r0, r3
 80025c8:	3714      	adds	r7, #20
 80025ca:	46bd      	mov	sp, r7
 80025cc:	f85d 7b04 	ldr.w	r7, [sp], #4
 80025d0:	4770      	bx	lr

080025d2 <vQueueDelete>:
 80025d2:	b580      	push	{r7, lr}
 80025d4:	b084      	sub	sp, #16
 80025d6:	af00      	add	r7, sp, #0
 80025d8:	6078      	str	r0, [r7, #4]
 80025da:	687b      	ldr	r3, [r7, #4]
 80025dc:	60fb      	str	r3, [r7, #12]
 80025de:	68f8      	ldr	r0, [r7, #12]
 80025e0:	f001 f9d8 	bl	8003994 <vPortFree>
 80025e4:	bf00      	nop
 80025e6:	3710      	adds	r7, #16
 80025e8:	46bd      	mov	sp, r7
 80025ea:	bd80      	pop	{r7, pc}

080025ec <uxQueueGetQueueItemSize>:
 80025ec:	b480      	push	{r7}
 80025ee:	b083      	sub	sp, #12
 80025f0:	af00      	add	r7, sp, #0
 80025f2:	6078      	str	r0, [r7, #4]
 80025f4:	687b      	ldr	r3, [r7, #4]
 80025f6:	6c1b      	ldr	r3, [r3, #64]	; 0x40
 80025f8:	4618      	mov	r0, r3
 80025fa:	370c      	adds	r7, #12
 80025fc:	46bd      	mov	sp, r7
 80025fe:	f85d 7b04 	ldr.w	r7, [sp], #4
 8002602:	4770      	bx	lr

08002604 <uxQueueGetQueueLength>:
 8002604:	b480      	push	{r7}
 8002606:	b083      	sub	sp, #12
 8002608:	af00      	add	r7, sp, #0
 800260a:	6078      	str	r0, [r7, #4]
 800260c:	687b      	ldr	r3, [r7, #4]
 800260e:	6bdb      	ldr	r3, [r3, #60]	; 0x3c
 8002610:	4618      	mov	r0, r3
 8002612:	370c      	adds	r7, #12
 8002614:	46bd      	mov	sp, r7
 8002616:	f85d 7b04 	ldr.w	r7, [sp], #4
 800261a:	4770      	bx	lr

0800261c <prvCopyDataToQueue>:
 800261c:	b580      	push	{r7, lr}
 800261e:	b086      	sub	sp, #24
 8002620:	af00      	add	r7, sp, #0
 8002622:	60f8      	str	r0, [r7, #12]
 8002624:	60b9      	str	r1, [r7, #8]
 8002626:	607a      	str	r2, [r7, #4]
 8002628:	2300      	movs	r3, #0
 800262a:	613b      	str	r3, [r7, #16]
 800262c:	68fb      	ldr	r3, [r7, #12]
 800262e:	6b9b      	ldr	r3, [r3, #56]	; 0x38
 8002630:	617b      	str	r3, [r7, #20]
 8002632:	68fb      	ldr	r3, [r7, #12]
 8002634:	6c1b      	ldr	r3, [r3, #64]	; 0x40
 8002636:	2b00      	cmp	r3, #0
 8002638:	d043      	beq.n	80026c2 <prvCopyDataToQueue+0xa6>
 800263a:	687b      	ldr	r3, [r7, #4]
 800263c:	2b00      	cmp	r3, #0
 800263e:	d119      	bne.n	8002674 <prvCopyDataToQueue+0x58>
 8002640:	68fb      	ldr	r3, [r7, #12]
 8002642:	6858      	ldr	r0, [r3, #4]
 8002644:	68fb      	ldr	r3, [r7, #12]
 8002646:	6c1b      	ldr	r3, [r3, #64]	; 0x40
 8002648:	461a      	mov	r2, r3
 800264a:	68b9      	ldr	r1, [r7, #8]
 800264c:	f006 fbbe 	bl	8008dcc <memcpy>
 8002650:	68fb      	ldr	r3, [r7, #12]
 8002652:	685a      	ldr	r2, [r3, #4]
 8002654:	68fb      	ldr	r3, [r7, #12]
 8002656:	6c1b      	ldr	r3, [r3, #64]	; 0x40
 8002658:	441a      	add	r2, r3
 800265a:	68fb      	ldr	r3, [r7, #12]
 800265c:	605a      	str	r2, [r3, #4]
 800265e:	68fb      	ldr	r3, [r7, #12]
 8002660:	685a      	ldr	r2, [r3, #4]
 8002662:	68fb      	ldr	r3, [r7, #12]
 8002664:	689b      	ldr	r3, [r3, #8]
 8002666:	429a      	cmp	r2, r3
 8002668:	d32b      	bcc.n	80026c2 <prvCopyDataToQueue+0xa6>
 800266a:	68fb      	ldr	r3, [r7, #12]
 800266c:	681a      	ldr	r2, [r3, #0]
 800266e:	68fb      	ldr	r3, [r7, #12]
 8002670:	605a      	str	r2, [r3, #4]
 8002672:	e026      	b.n	80026c2 <prvCopyDataToQueue+0xa6>
 8002674:	68fb      	ldr	r3, [r7, #12]
 8002676:	68d8      	ldr	r0, [r3, #12]
 8002678:	68fb      	ldr	r3, [r7, #12]
 800267a:	6c1b      	ldr	r3, [r3, #64]	; 0x40
 800267c:	461a      	mov	r2, r3
 800267e:	68b9      	ldr	r1, [r7, #8]
 8002680:	f006 fba4 	bl	8008dcc <memcpy>
 8002684:	68fb      	ldr	r3, [r7, #12]
 8002686:	68da      	ldr	r2, [r3, #12]
 8002688:	68fb      	ldr	r3, [r7, #12]
 800268a:	6c1b      	ldr	r3, [r3, #64]	; 0x40
 800268c:	425b      	negs	r3, r3
 800268e:	441a      	add	r2, r3
 8002690:	68fb      	ldr	r3, [r7, #12]
 8002692:	60da      	str	r2, [r3, #12]
 8002694:	68fb      	ldr	r3, [r7, #12]
 8002696:	68da      	ldr	r2, [r3, #12]
 8002698:	68fb      	ldr	r3, [r7, #12]
 800269a:	681b      	ldr	r3, [r3, #0]
 800269c:	429a      	cmp	r2, r3
 800269e:	d207      	bcs.n	80026b0 <prvCopyDataToQueue+0x94>
 80026a0:	68fb      	ldr	r3, [r7, #12]
 80026a2:	689a      	ldr	r2, [r3, #8]
 80026a4:	68fb      	ldr	r3, [r7, #12]
 80026a6:	6c1b      	ldr	r3, [r3, #64]	; 0x40
 80026a8:	425b      	negs	r3, r3
 80026aa:	441a      	add	r2, r3
 80026ac:	68fb      	ldr	r3, [r7, #12]
 80026ae:	60da      	str	r2, [r3, #12]
 80026b0:	687b      	ldr	r3, [r7, #4]
 80026b2:	2b02      	cmp	r3, #2
 80026b4:	d105      	bne.n	80026c2 <prvCopyDataToQueue+0xa6>
 80026b6:	697b      	ldr	r3, [r7, #20]
 80026b8:	2b00      	cmp	r3, #0
 80026ba:	d002      	beq.n	80026c2 <prvCopyDataToQueue+0xa6>
 80026bc:	697b      	ldr	r3, [r7, #20]
 80026be:	3b01      	subs	r3, #1
 80026c0:	617b      	str	r3, [r7, #20]
 80026c2:	697b      	ldr	r3, [r7, #20]
 80026c4:	1c5a      	adds	r2, r3, #1
 80026c6:	68fb      	ldr	r3, [r7, #12]
 80026c8:	639a      	str	r2, [r3, #56]	; 0x38
 80026ca:	693b      	ldr	r3, [r7, #16]
 80026cc:	4618      	mov	r0, r3
 80026ce:	3718      	adds	r7, #24
 80026d0:	46bd      	mov	sp, r7
 80026d2:	bd80      	pop	{r7, pc}

080026d4 <prvCopyDataFromQueue>:
 80026d4:	b580      	push	{r7, lr}
 80026d6:	b082      	sub	sp, #8
 80026d8:	af00      	add	r7, sp, #0
 80026da:	6078      	str	r0, [r7, #4]
 80026dc:	6039      	str	r1, [r7, #0]
 80026de:	687b      	ldr	r3, [r7, #4]
 80026e0:	6c1b      	ldr	r3, [r3, #64]	; 0x40
 80026e2:	2b00      	cmp	r3, #0
 80026e4:	d018      	beq.n	8002718 <prvCopyDataFromQueue+0x44>
 80026e6:	687b      	ldr	r3, [r7, #4]
 80026e8:	68da      	ldr	r2, [r3, #12]
 80026ea:	687b      	ldr	r3, [r7, #4]
 80026ec:	6c1b      	ldr	r3, [r3, #64]	; 0x40
 80026ee:	441a      	add	r2, r3
 80026f0:	687b      	ldr	r3, [r7, #4]
 80026f2:	60da      	str	r2, [r3, #12]
 80026f4:	687b      	ldr	r3, [r7, #4]
 80026f6:	68da      	ldr	r2, [r3, #12]
 80026f8:	687b      	ldr	r3, [r7, #4]
 80026fa:	689b      	ldr	r3, [r3, #8]
 80026fc:	429a      	cmp	r2, r3
 80026fe:	d303      	bcc.n	8002708 <prvCopyDataFromQueue+0x34>
 8002700:	687b      	ldr	r3, [r7, #4]
 8002702:	681a      	ldr	r2, [r3, #0]
 8002704:	687b      	ldr	r3, [r7, #4]
 8002706:	60da      	str	r2, [r3, #12]
 8002708:	687b      	ldr	r3, [r7, #4]
 800270a:	68d9      	ldr	r1, [r3, #12]
 800270c:	687b      	ldr	r3, [r7, #4]
 800270e:	6c1b      	ldr	r3, [r3, #64]	; 0x40
 8002710:	461a      	mov	r2, r3
 8002712:	6838      	ldr	r0, [r7, #0]
 8002714:	f006 fb5a 	bl	8008dcc <memcpy>
 8002718:	bf00      	nop
 800271a:	3708      	adds	r7, #8
 800271c:	46bd      	mov	sp, r7
 800271e:	bd80      	pop	{r7, pc}

08002720 <prvUnlockQueue>:
 8002720:	b580      	push	{r7, lr}
 8002722:	b084      	sub	sp, #16
 8002724:	af00      	add	r7, sp, #0
 8002726:	6078      	str	r0, [r7, #4]
 8002728:	f001 fbb5 	bl	8003e96 <vPortEnterCritical>
 800272c:	687b      	ldr	r3, [r7, #4]
 800272e:	f893 3045 	ldrb.w	r3, [r3, #69]	; 0x45
 8002732:	73fb      	strb	r3, [r7, #15]
 8002734:	e011      	b.n	800275a <prvUnlockQueue+0x3a>
 8002736:	687b      	ldr	r3, [r7, #4]
 8002738:	6a5b      	ldr	r3, [r3, #36]	; 0x24
 800273a:	2b00      	cmp	r3, #0
 800273c:	d012      	beq.n	8002764 <prvUnlockQueue+0x44>
 800273e:	687b      	ldr	r3, [r7, #4]
 8002740:	3324      	adds	r3, #36	; 0x24
 8002742:	4618      	mov	r0, r3
 8002744:	f7fe faca 	bl	8000cdc <xTaskRemoveFromEventList>
 8002748:	4603      	mov	r3, r0
 800274a:	2b00      	cmp	r3, #0
 800274c:	d001      	beq.n	8002752 <prvUnlockQueue+0x32>
 800274e:	f7fe fca3 	bl	8001098 <vTaskMissedYield>
 8002752:	7bfb      	ldrb	r3, [r7, #15]
 8002754:	3b01      	subs	r3, #1
 8002756:	b2db      	uxtb	r3, r3
 8002758:	73fb      	strb	r3, [r7, #15]
 800275a:	f997 300f 	ldrsb.w	r3, [r7, #15]
 800275e:	2b00      	cmp	r3, #0
 8002760:	dce9      	bgt.n	8002736 <prvUnlockQueue+0x16>
 8002762:	e000      	b.n	8002766 <prvUnlockQueue+0x46>
 8002764:	bf00      	nop
 8002766:	687b      	ldr	r3, [r7, #4]
 8002768:	22ff      	movs	r2, #255	; 0xff
 800276a:	f883 2045 	strb.w	r2, [r3, #69]	; 0x45
 800276e:	f001 fbad 	bl	8003ecc <vPortExitCritical>
 8002772:	f001 fb90 	bl	8003e96 <vPortEnterCritical>
 8002776:	687b      	ldr	r3, [r7, #4]
 8002778:	f893 3044 	ldrb.w	r3, [r3, #68]	; 0x44
 800277c:	73bb      	strb	r3, [r7, #14]
 800277e:	e011      	b.n	80027a4 <prvUnlockQueue+0x84>
 8002780:	687b      	ldr	r3, [r7, #4]
 8002782:	691b      	ldr	r3, [r3, #16]
 8002784:	2b00      	cmp	r3, #0
 8002786:	d012      	beq.n	80027ae <prvUnlockQueue+0x8e>
 8002788:	687b      	ldr	r3, [r7, #4]
 800278a:	3310      	adds	r3, #16
 800278c:	4618      	mov	r0, r3
 800278e:	f7fe faa5 	bl	8000cdc <xTaskRemoveFromEventList>
 8002792:	4603      	mov	r3, r0
 8002794:	2b00      	cmp	r3, #0
 8002796:	d001      	beq.n	800279c <prvUnlockQueue+0x7c>
 8002798:	f7fe fc7e 	bl	8001098 <vTaskMissedYield>
 800279c:	7bbb      	ldrb	r3, [r7, #14]
 800279e:	3b01      	subs	r3, #1
 80027a0:	b2db      	uxtb	r3, r3
 80027a2:	73bb      	strb	r3, [r7, #14]
 80027a4:	f997 300e 	ldrsb.w	r3, [r7, #14]
 80027a8:	2b00      	cmp	r3, #0
 80027aa:	dce9      	bgt.n	8002780 <prvUnlockQueue+0x60>
 80027ac:	e000      	b.n	80027b0 <prvUnlockQueue+0x90>
 80027ae:	bf00      	nop
 80027b0:	687b      	ldr	r3, [r7, #4]
 80027b2:	22ff      	movs	r2, #255	; 0xff
 80027b4:	f883 2044 	strb.w	r2, [r3, #68]	; 0x44
 80027b8:	f001 fb88 	bl	8003ecc <vPortExitCritical>
 80027bc:	bf00      	nop
 80027be:	3710      	adds	r7, #16
 80027c0:	46bd      	mov	sp, r7
 80027c2:	bd80      	pop	{r7, pc}

080027c4 <prvIsQueueEmpty>:
 80027c4:	b580      	push	{r7, lr}
 80027c6:	b084      	sub	sp, #16
 80027c8:	af00      	add	r7, sp, #0
 80027ca:	6078      	str	r0, [r7, #4]
 80027cc:	f001 fb63 	bl	8003e96 <vPortEnterCritical>
 80027d0:	687b      	ldr	r3, [r7, #4]
 80027d2:	6b9b      	ldr	r3, [r3, #56]	; 0x38
 80027d4:	2b00      	cmp	r3, #0
 80027d6:	d102      	bne.n	80027de <prvIsQueueEmpty+0x1a>
 80027d8:	2301      	movs	r3, #1
 80027da:	60fb      	str	r3, [r7, #12]
 80027dc:	e001      	b.n	80027e2 <prvIsQueueEmpty+0x1e>
 80027de:	2300      	movs	r3, #0
 80027e0:	60fb      	str	r3, [r7, #12]
 80027e2:	f001 fb73 	bl	8003ecc <vPortExitCritical>
 80027e6:	68fb      	ldr	r3, [r7, #12]
 80027e8:	4618      	mov	r0, r3
 80027ea:	3710      	adds	r7, #16
 80027ec:	46bd      	mov	sp, r7
 80027ee:	bd80      	pop	{r7, pc}

080027f0 <xQueueIsQueueEmptyFromISR>:
 80027f0:	b480      	push	{r7}
 80027f2:	b085      	sub	sp, #20
 80027f4:	af00      	add	r7, sp, #0
 80027f6:	6078      	str	r0, [r7, #4]
 80027f8:	687b      	ldr	r3, [r7, #4]
 80027fa:	60bb      	str	r3, [r7, #8]
 80027fc:	68bb      	ldr	r3, [r7, #8]
 80027fe:	6b9b      	ldr	r3, [r3, #56]	; 0x38
 8002800:	2b00      	cmp	r3, #0
 8002802:	d102      	bne.n	800280a <xQueueIsQueueEmptyFromISR+0x1a>
 8002804:	2301      	movs	r3, #1
 8002806:	60fb      	str	r3, [r7, #12]
 8002808:	e001      	b.n	800280e <xQueueIsQueueEmptyFromISR+0x1e>
 800280a:	2300      	movs	r3, #0
 800280c:	60fb      	str	r3, [r7, #12]
 800280e:	68fb      	ldr	r3, [r7, #12]
 8002810:	4618      	mov	r0, r3
 8002812:	3714      	adds	r7, #20
 8002814:	46bd      	mov	sp, r7
 8002816:	f85d 7b04 	ldr.w	r7, [sp], #4
 800281a:	4770      	bx	lr

0800281c <prvIsQueueFull>:
 800281c:	b580      	push	{r7, lr}
 800281e:	b084      	sub	sp, #16
 8002820:	af00      	add	r7, sp, #0
 8002822:	6078      	str	r0, [r7, #4]
 8002824:	f001 fb37 	bl	8003e96 <vPortEnterCritical>
 8002828:	687b      	ldr	r3, [r7, #4]
 800282a:	6b9a      	ldr	r2, [r3, #56]	; 0x38
 800282c:	687b      	ldr	r3, [r7, #4]
 800282e:	6bdb      	ldr	r3, [r3, #60]	; 0x3c
 8002830:	429a      	cmp	r2, r3
 8002832:	d102      	bne.n	800283a <prvIsQueueFull+0x1e>
 8002834:	2301      	movs	r3, #1
 8002836:	60fb      	str	r3, [r7, #12]
 8002838:	e001      	b.n	800283e <prvIsQueueFull+0x22>
 800283a:	2300      	movs	r3, #0
 800283c:	60fb      	str	r3, [r7, #12]
 800283e:	f001 fb45 	bl	8003ecc <vPortExitCritical>
 8002842:	68fb      	ldr	r3, [r7, #12]
 8002844:	4618      	mov	r0, r3
 8002846:	3710      	adds	r7, #16
 8002848:	46bd      	mov	sp, r7
 800284a:	bd80      	pop	{r7, pc}

0800284c <xQueueIsQueueFullFromISR>:
 800284c:	b480      	push	{r7}
 800284e:	b085      	sub	sp, #20
 8002850:	af00      	add	r7, sp, #0
 8002852:	6078      	str	r0, [r7, #4]
 8002854:	687b      	ldr	r3, [r7, #4]
 8002856:	60bb      	str	r3, [r7, #8]
 8002858:	68bb      	ldr	r3, [r7, #8]
 800285a:	6b9a      	ldr	r2, [r3, #56]	; 0x38
 800285c:	68bb      	ldr	r3, [r7, #8]
 800285e:	6bdb      	ldr	r3, [r3, #60]	; 0x3c
 8002860:	429a      	cmp	r2, r3
 8002862:	d102      	bne.n	800286a <xQueueIsQueueFullFromISR+0x1e>
 8002864:	2301      	movs	r3, #1
 8002866:	60fb      	str	r3, [r7, #12]
 8002868:	e001      	b.n	800286e <xQueueIsQueueFullFromISR+0x22>
 800286a:	2300      	movs	r3, #0
 800286c:	60fb      	str	r3, [r7, #12]
 800286e:	68fb      	ldr	r3, [r7, #12]
 8002870:	4618      	mov	r0, r3
 8002872:	3714      	adds	r7, #20
 8002874:	46bd      	mov	sp, r7
 8002876:	f85d 7b04 	ldr.w	r7, [sp], #4
 800287a:	4770      	bx	lr

0800287c <vListInitialise>:
 800287c:	b480      	push	{r7}
 800287e:	b083      	sub	sp, #12
 8002880:	af00      	add	r7, sp, #0
 8002882:	6078      	str	r0, [r7, #4]
 8002884:	687b      	ldr	r3, [r7, #4]
 8002886:	f103 0208 	add.w	r2, r3, #8
 800288a:	687b      	ldr	r3, [r7, #4]
 800288c:	605a      	str	r2, [r3, #4]
 800288e:	687b      	ldr	r3, [r7, #4]
 8002890:	f04f 32ff 	mov.w	r2, #4294967295	; 0xffffffff
 8002894:	609a      	str	r2, [r3, #8]
 8002896:	687b      	ldr	r3, [r7, #4]
 8002898:	f103 0208 	add.w	r2, r3, #8
 800289c:	687b      	ldr	r3, [r7, #4]
 800289e:	60da      	str	r2, [r3, #12]
 80028a0:	687b      	ldr	r3, [r7, #4]
 80028a2:	f103 0208 	add.w	r2, r3, #8
 80028a6:	687b      	ldr	r3, [r7, #4]
 80028a8:	611a      	str	r2, [r3, #16]
 80028aa:	687b      	ldr	r3, [r7, #4]
 80028ac:	2200      	movs	r2, #0
 80028ae:	601a      	str	r2, [r3, #0]
 80028b0:	bf00      	nop
 80028b2:	370c      	adds	r7, #12
 80028b4:	46bd      	mov	sp, r7
 80028b6:	f85d 7b04 	ldr.w	r7, [sp], #4
 80028ba:	4770      	bx	lr

080028bc <vListInitialiseItem>:
 80028bc:	b480      	push	{r7}
 80028be:	b083      	sub	sp, #12
 80028c0:	af00      	add	r7, sp, #0
 80028c2:	6078      	str	r0, [r7, #4]
 80028c4:	687b      	ldr	r3, [r7, #4]
 80028c6:	2200      	movs	r2, #0
 80028c8:	611a      	str	r2, [r3, #16]
 80028ca:	bf00      	nop
 80028cc:	370c      	adds	r7, #12
 80028ce:	46bd      	mov	sp, r7
 80028d0:	f85d 7b04 	ldr.w	r7, [sp], #4
 80028d4:	4770      	bx	lr

080028d6 <vListInsertEnd>:
 80028d6:	b480      	push	{r7}
 80028d8:	b085      	sub	sp, #20
 80028da:	af00      	add	r7, sp, #0
 80028dc:	6078      	str	r0, [r7, #4]
 80028de:	6039      	str	r1, [r7, #0]
 80028e0:	687b      	ldr	r3, [r7, #4]
 80028e2:	685b      	ldr	r3, [r3, #4]
 80028e4:	60fb      	str	r3, [r7, #12]
 80028e6:	683b      	ldr	r3, [r7, #0]
 80028e8:	68fa      	ldr	r2, [r7, #12]
 80028ea:	605a      	str	r2, [r3, #4]
 80028ec:	68fb      	ldr	r3, [r7, #12]
 80028ee:	689a      	ldr	r2, [r3, #8]
 80028f0:	683b      	ldr	r3, [r7, #0]
 80028f2:	609a      	str	r2, [r3, #8]
 80028f4:	68fb      	ldr	r3, [r7, #12]
 80028f6:	689b      	ldr	r3, [r3, #8]
 80028f8:	683a      	ldr	r2, [r7, #0]
 80028fa:	605a      	str	r2, [r3, #4]
 80028fc:	68fb      	ldr	r3, [r7, #12]
 80028fe:	683a      	ldr	r2, [r7, #0]
 8002900:	609a      	str	r2, [r3, #8]
 8002902:	683b      	ldr	r3, [r7, #0]
 8002904:	687a      	ldr	r2, [r7, #4]
 8002906:	611a      	str	r2, [r3, #16]
 8002908:	687b      	ldr	r3, [r7, #4]
 800290a:	681b      	ldr	r3, [r3, #0]
 800290c:	1c5a      	adds	r2, r3, #1
 800290e:	687b      	ldr	r3, [r7, #4]
 8002910:	601a      	str	r2, [r3, #0]
 8002912:	bf00      	nop
 8002914:	3714      	adds	r7, #20
 8002916:	46bd      	mov	sp, r7
 8002918:	f85d 7b04 	ldr.w	r7, [sp], #4
 800291c:	4770      	bx	lr

0800291e <vListInsert>:
 800291e:	b480      	push	{r7}
 8002920:	b085      	sub	sp, #20
 8002922:	af00      	add	r7, sp, #0
 8002924:	6078      	str	r0, [r7, #4]
 8002926:	6039      	str	r1, [r7, #0]
 8002928:	683b      	ldr	r3, [r7, #0]
 800292a:	681b      	ldr	r3, [r3, #0]
 800292c:	60bb      	str	r3, [r7, #8]
 800292e:	68bb      	ldr	r3, [r7, #8]
 8002930:	f1b3 3fff 	cmp.w	r3, #4294967295	; 0xffffffff
 8002934:	d103      	bne.n	800293e <vListInsert+0x20>
 8002936:	687b      	ldr	r3, [r7, #4]
 8002938:	691b      	ldr	r3, [r3, #16]
 800293a:	60fb      	str	r3, [r7, #12]
 800293c:	e00c      	b.n	8002958 <vListInsert+0x3a>
 800293e:	687b      	ldr	r3, [r7, #4]
 8002940:	3308      	adds	r3, #8
 8002942:	60fb      	str	r3, [r7, #12]
 8002944:	e002      	b.n	800294c <vListInsert+0x2e>
 8002946:	68fb      	ldr	r3, [r7, #12]
 8002948:	685b      	ldr	r3, [r3, #4]
 800294a:	60fb      	str	r3, [r7, #12]
 800294c:	68fb      	ldr	r3, [r7, #12]
 800294e:	685b      	ldr	r3, [r3, #4]
 8002950:	681b      	ldr	r3, [r3, #0]
 8002952:	68ba      	ldr	r2, [r7, #8]
 8002954:	429a      	cmp	r2, r3
 8002956:	d2f6      	bcs.n	8002946 <vListInsert+0x28>
 8002958:	68fb      	ldr	r3, [r7, #12]
 800295a:	685a      	ldr	r2, [r3, #4]
 800295c:	683b      	ldr	r3, [r7, #0]
 800295e:	605a      	str	r2, [r3, #4]
 8002960:	683b      	ldr	r3, [r7, #0]
 8002962:	685b      	ldr	r3, [r3, #4]
 8002964:	683a      	ldr	r2, [r7, #0]
 8002966:	609a      	str	r2, [r3, #8]
 8002968:	683b      	ldr	r3, [r7, #0]
 800296a:	68fa      	ldr	r2, [r7, #12]
 800296c:	609a      	str	r2, [r3, #8]
 800296e:	68fb      	ldr	r3, [r7, #12]
 8002970:	683a      	ldr	r2, [r7, #0]
 8002972:	605a      	str	r2, [r3, #4]
 8002974:	683b      	ldr	r3, [r7, #0]
 8002976:	687a      	ldr	r2, [r7, #4]
 8002978:	611a      	str	r2, [r3, #16]
 800297a:	687b      	ldr	r3, [r7, #4]
 800297c:	681b      	ldr	r3, [r3, #0]
 800297e:	1c5a      	adds	r2, r3, #1
 8002980:	687b      	ldr	r3, [r7, #4]
 8002982:	601a      	str	r2, [r3, #0]
 8002984:	bf00      	nop
 8002986:	3714      	adds	r7, #20
 8002988:	46bd      	mov	sp, r7
 800298a:	f85d 7b04 	ldr.w	r7, [sp], #4
 800298e:	4770      	bx	lr

08002990 <uxListRemove>:
 8002990:	b480      	push	{r7}
 8002992:	b085      	sub	sp, #20
 8002994:	af00      	add	r7, sp, #0
 8002996:	6078      	str	r0, [r7, #4]
 8002998:	687b      	ldr	r3, [r7, #4]
 800299a:	691b      	ldr	r3, [r3, #16]
 800299c:	60fb      	str	r3, [r7, #12]
 800299e:	687b      	ldr	r3, [r7, #4]
 80029a0:	685b      	ldr	r3, [r3, #4]
 80029a2:	687a      	ldr	r2, [r7, #4]
 80029a4:	6892      	ldr	r2, [r2, #8]
 80029a6:	609a      	str	r2, [r3, #8]
 80029a8:	687b      	ldr	r3, [r7, #4]
 80029aa:	689b      	ldr	r3, [r3, #8]
 80029ac:	687a      	ldr	r2, [r7, #4]
 80029ae:	6852      	ldr	r2, [r2, #4]
 80029b0:	605a      	str	r2, [r3, #4]
 80029b2:	68fb      	ldr	r3, [r7, #12]
 80029b4:	685b      	ldr	r3, [r3, #4]
 80029b6:	687a      	ldr	r2, [r7, #4]
 80029b8:	429a      	cmp	r2, r3
 80029ba:	d103      	bne.n	80029c4 <uxListRemove+0x34>
 80029bc:	687b      	ldr	r3, [r7, #4]
 80029be:	689a      	ldr	r2, [r3, #8]
 80029c0:	68fb      	ldr	r3, [r7, #12]
 80029c2:	605a      	str	r2, [r3, #4]
 80029c4:	687b      	ldr	r3, [r7, #4]
 80029c6:	2200      	movs	r2, #0
 80029c8:	611a      	str	r2, [r3, #16]
 80029ca:	68fb      	ldr	r3, [r7, #12]
 80029cc:	681b      	ldr	r3, [r3, #0]
 80029ce:	1e5a      	subs	r2, r3, #1
 80029d0:	68fb      	ldr	r3, [r7, #12]
 80029d2:	601a      	str	r2, [r3, #0]
 80029d4:	68fb      	ldr	r3, [r7, #12]
 80029d6:	681b      	ldr	r3, [r3, #0]
 80029d8:	4618      	mov	r0, r3
 80029da:	3714      	adds	r7, #20
 80029dc:	46bd      	mov	sp, r7
 80029de:	f85d 7b04 	ldr.w	r7, [sp], #4
 80029e2:	4770      	bx	lr

080029e4 <xEventGroupCreate>:
 80029e4:	b580      	push	{r7, lr}
 80029e6:	b082      	sub	sp, #8
 80029e8:	af00      	add	r7, sp, #0
 80029ea:	2018      	movs	r0, #24
 80029ec:	f000 ff20 	bl	8003830 <pvPortMalloc>
 80029f0:	6078      	str	r0, [r7, #4]
 80029f2:	687b      	ldr	r3, [r7, #4]
 80029f4:	2b00      	cmp	r3, #0
 80029f6:	d007      	beq.n	8002a08 <xEventGroupCreate+0x24>
 80029f8:	687b      	ldr	r3, [r7, #4]
 80029fa:	2200      	movs	r2, #0
 80029fc:	601a      	str	r2, [r3, #0]
 80029fe:	687b      	ldr	r3, [r7, #4]
 8002a00:	3304      	adds	r3, #4
 8002a02:	4618      	mov	r0, r3
 8002a04:	f7ff ff3a 	bl	800287c <vListInitialise>
 8002a08:	687b      	ldr	r3, [r7, #4]
 8002a0a:	4618      	mov	r0, r3
 8002a0c:	3708      	adds	r7, #8
 8002a0e:	46bd      	mov	sp, r7
 8002a10:	bd80      	pop	{r7, pc}

08002a12 <xEventGroupSync>:
 8002a12:	b580      	push	{r7, lr}
 8002a14:	b08a      	sub	sp, #40	; 0x28
 8002a16:	af00      	add	r7, sp, #0
 8002a18:	60f8      	str	r0, [r7, #12]
 8002a1a:	60b9      	str	r1, [r7, #8]
 8002a1c:	607a      	str	r2, [r7, #4]
 8002a1e:	603b      	str	r3, [r7, #0]
 8002a20:	68fb      	ldr	r3, [r7, #12]
 8002a22:	623b      	str	r3, [r7, #32]
 8002a24:	2300      	movs	r3, #0
 8002a26:	61fb      	str	r3, [r7, #28]
 8002a28:	f7fd fe26 	bl	8000678 <vTaskSuspendAll>
 8002a2c:	6a3b      	ldr	r3, [r7, #32]
 8002a2e:	681b      	ldr	r3, [r3, #0]
 8002a30:	61bb      	str	r3, [r7, #24]
 8002a32:	68b9      	ldr	r1, [r7, #8]
 8002a34:	68f8      	ldr	r0, [r7, #12]
 8002a36:	f000 f92d 	bl	8002c94 <xEventGroupSetBits>
 8002a3a:	69ba      	ldr	r2, [r7, #24]
 8002a3c:	68bb      	ldr	r3, [r7, #8]
 8002a3e:	431a      	orrs	r2, r3
 8002a40:	687b      	ldr	r3, [r7, #4]
 8002a42:	4013      	ands	r3, r2
 8002a44:	687a      	ldr	r2, [r7, #4]
 8002a46:	429a      	cmp	r2, r3
 8002a48:	d10d      	bne.n	8002a66 <xEventGroupSync+0x54>
 8002a4a:	69ba      	ldr	r2, [r7, #24]
 8002a4c:	68bb      	ldr	r3, [r7, #8]
 8002a4e:	4313      	orrs	r3, r2
 8002a50:	627b      	str	r3, [r7, #36]	; 0x24
 8002a52:	6a3b      	ldr	r3, [r7, #32]
 8002a54:	681a      	ldr	r2, [r3, #0]
 8002a56:	687b      	ldr	r3, [r7, #4]
 8002a58:	43db      	mvns	r3, r3
 8002a5a:	401a      	ands	r2, r3
 8002a5c:	6a3b      	ldr	r3, [r7, #32]
 8002a5e:	601a      	str	r2, [r3, #0]
 8002a60:	2300      	movs	r3, #0
 8002a62:	603b      	str	r3, [r7, #0]
 8002a64:	e013      	b.n	8002a8e <xEventGroupSync+0x7c>
 8002a66:	683b      	ldr	r3, [r7, #0]
 8002a68:	2b00      	cmp	r3, #0
 8002a6a:	d00b      	beq.n	8002a84 <xEventGroupSync+0x72>
 8002a6c:	6a3b      	ldr	r3, [r7, #32]
 8002a6e:	1d18      	adds	r0, r3, #4
 8002a70:	687b      	ldr	r3, [r7, #4]
 8002a72:	f043 63a0 	orr.w	r3, r3, #83886080	; 0x5000000
 8002a76:	683a      	ldr	r2, [r7, #0]
 8002a78:	4619      	mov	r1, r3
 8002a7a:	f7fe f8f7 	bl	8000c6c <vTaskPlaceOnUnorderedEventList>
 8002a7e:	2300      	movs	r3, #0
 8002a80:	627b      	str	r3, [r7, #36]	; 0x24
 8002a82:	e004      	b.n	8002a8e <xEventGroupSync+0x7c>
 8002a84:	6a3b      	ldr	r3, [r7, #32]
 8002a86:	681b      	ldr	r3, [r3, #0]
 8002a88:	627b      	str	r3, [r7, #36]	; 0x24
 8002a8a:	2301      	movs	r3, #1
 8002a8c:	61fb      	str	r3, [r7, #28]
 8002a8e:	f7fd fe01 	bl	8000694 <xTaskResumeAll>
 8002a92:	6178      	str	r0, [r7, #20]
 8002a94:	683b      	ldr	r3, [r7, #0]
 8002a96:	2b00      	cmp	r3, #0
 8002a98:	d02c      	beq.n	8002af4 <xEventGroupSync+0xe2>
 8002a9a:	697b      	ldr	r3, [r7, #20]
 8002a9c:	2b00      	cmp	r3, #0
 8002a9e:	d107      	bne.n	8002ab0 <xEventGroupSync+0x9e>
 8002aa0:	4b17      	ldr	r3, [pc, #92]	; (8002b00 <xEventGroupSync+0xee>)
 8002aa2:	f04f 5280 	mov.w	r2, #268435456	; 0x10000000
 8002aa6:	601a      	str	r2, [r3, #0]
 8002aa8:	f3bf 8f4f 	dsb	sy
 8002aac:	f3bf 8f6f 	isb	sy
 8002ab0:	f7fe fb96 	bl	80011e0 <uxTaskResetEventItemValue>
 8002ab4:	6278      	str	r0, [r7, #36]	; 0x24
 8002ab6:	6a7b      	ldr	r3, [r7, #36]	; 0x24
 8002ab8:	f003 7300 	and.w	r3, r3, #33554432	; 0x2000000
 8002abc:	2b00      	cmp	r3, #0
 8002abe:	d115      	bne.n	8002aec <xEventGroupSync+0xda>
 8002ac0:	f001 f9e9 	bl	8003e96 <vPortEnterCritical>
 8002ac4:	6a3b      	ldr	r3, [r7, #32]
 8002ac6:	681b      	ldr	r3, [r3, #0]
 8002ac8:	627b      	str	r3, [r7, #36]	; 0x24
 8002aca:	6a7a      	ldr	r2, [r7, #36]	; 0x24
 8002acc:	687b      	ldr	r3, [r7, #4]
 8002ace:	4013      	ands	r3, r2
 8002ad0:	687a      	ldr	r2, [r7, #4]
 8002ad2:	429a      	cmp	r2, r3
 8002ad4:	d106      	bne.n	8002ae4 <xEventGroupSync+0xd2>
 8002ad6:	6a3b      	ldr	r3, [r7, #32]
 8002ad8:	681a      	ldr	r2, [r3, #0]
 8002ada:	687b      	ldr	r3, [r7, #4]
 8002adc:	43db      	mvns	r3, r3
 8002ade:	401a      	ands	r2, r3
 8002ae0:	6a3b      	ldr	r3, [r7, #32]
 8002ae2:	601a      	str	r2, [r3, #0]
 8002ae4:	f001 f9f2 	bl	8003ecc <vPortExitCritical>
 8002ae8:	2301      	movs	r3, #1
 8002aea:	61fb      	str	r3, [r7, #28]
 8002aec:	6a7b      	ldr	r3, [r7, #36]	; 0x24
 8002aee:	f023 437f 	bic.w	r3, r3, #4278190080	; 0xff000000
 8002af2:	627b      	str	r3, [r7, #36]	; 0x24
 8002af4:	6a7b      	ldr	r3, [r7, #36]	; 0x24
 8002af6:	4618      	mov	r0, r3
 8002af8:	3728      	adds	r7, #40	; 0x28
 8002afa:	46bd      	mov	sp, r7
 8002afc:	bd80      	pop	{r7, pc}
 8002afe:	bf00      	nop
 8002b00:	e000ed04 	and	lr, r0, r4, lsl #26

08002b04 <xEventGroupWaitBits>:
 8002b04:	b580      	push	{r7, lr}
 8002b06:	b08c      	sub	sp, #48	; 0x30
 8002b08:	af00      	add	r7, sp, #0
 8002b0a:	60f8      	str	r0, [r7, #12]
 8002b0c:	60b9      	str	r1, [r7, #8]
 8002b0e:	607a      	str	r2, [r7, #4]
 8002b10:	603b      	str	r3, [r7, #0]
 8002b12:	68fb      	ldr	r3, [r7, #12]
 8002b14:	627b      	str	r3, [r7, #36]	; 0x24
 8002b16:	2300      	movs	r3, #0
 8002b18:	62bb      	str	r3, [r7, #40]	; 0x28
 8002b1a:	2300      	movs	r3, #0
 8002b1c:	623b      	str	r3, [r7, #32]
 8002b1e:	f7fd fdab 	bl	8000678 <vTaskSuspendAll>
 8002b22:	6a7b      	ldr	r3, [r7, #36]	; 0x24
 8002b24:	681b      	ldr	r3, [r3, #0]
 8002b26:	61fb      	str	r3, [r7, #28]
 8002b28:	683a      	ldr	r2, [r7, #0]
 8002b2a:	68b9      	ldr	r1, [r7, #8]
 8002b2c:	69f8      	ldr	r0, [r7, #28]
 8002b2e:	f000 f95a 	bl	8002de6 <prvTestWaitCondition>
 8002b32:	61b8      	str	r0, [r7, #24]
 8002b34:	69bb      	ldr	r3, [r7, #24]
 8002b36:	2b00      	cmp	r3, #0
 8002b38:	d00e      	beq.n	8002b58 <xEventGroupWaitBits+0x54>
 8002b3a:	69fb      	ldr	r3, [r7, #28]
 8002b3c:	62fb      	str	r3, [r7, #44]	; 0x2c
 8002b3e:	2300      	movs	r3, #0
 8002b40:	63bb      	str	r3, [r7, #56]	; 0x38
 8002b42:	687b      	ldr	r3, [r7, #4]
 8002b44:	2b00      	cmp	r3, #0
 8002b46:	d028      	beq.n	8002b9a <xEventGroupWaitBits+0x96>
 8002b48:	6a7b      	ldr	r3, [r7, #36]	; 0x24
 8002b4a:	681a      	ldr	r2, [r3, #0]
 8002b4c:	68bb      	ldr	r3, [r7, #8]
 8002b4e:	43db      	mvns	r3, r3
 8002b50:	401a      	ands	r2, r3
 8002b52:	6a7b      	ldr	r3, [r7, #36]	; 0x24
 8002b54:	601a      	str	r2, [r3, #0]
 8002b56:	e020      	b.n	8002b9a <xEventGroupWaitBits+0x96>
 8002b58:	6bbb      	ldr	r3, [r7, #56]	; 0x38
 8002b5a:	2b00      	cmp	r3, #0
 8002b5c:	d104      	bne.n	8002b68 <xEventGroupWaitBits+0x64>
 8002b5e:	69fb      	ldr	r3, [r7, #28]
 8002b60:	62fb      	str	r3, [r7, #44]	; 0x2c
 8002b62:	2301      	movs	r3, #1
 8002b64:	623b      	str	r3, [r7, #32]
 8002b66:	e018      	b.n	8002b9a <xEventGroupWaitBits+0x96>
 8002b68:	687b      	ldr	r3, [r7, #4]
 8002b6a:	2b00      	cmp	r3, #0
 8002b6c:	d003      	beq.n	8002b76 <xEventGroupWaitBits+0x72>
 8002b6e:	6abb      	ldr	r3, [r7, #40]	; 0x28
 8002b70:	f043 7380 	orr.w	r3, r3, #16777216	; 0x1000000
 8002b74:	62bb      	str	r3, [r7, #40]	; 0x28
 8002b76:	683b      	ldr	r3, [r7, #0]
 8002b78:	2b00      	cmp	r3, #0
 8002b7a:	d003      	beq.n	8002b84 <xEventGroupWaitBits+0x80>
 8002b7c:	6abb      	ldr	r3, [r7, #40]	; 0x28
 8002b7e:	f043 6380 	orr.w	r3, r3, #67108864	; 0x4000000
 8002b82:	62bb      	str	r3, [r7, #40]	; 0x28
 8002b84:	6a7b      	ldr	r3, [r7, #36]	; 0x24
 8002b86:	1d18      	adds	r0, r3, #4
 8002b88:	68ba      	ldr	r2, [r7, #8]
 8002b8a:	6abb      	ldr	r3, [r7, #40]	; 0x28
 8002b8c:	4313      	orrs	r3, r2
 8002b8e:	6bba      	ldr	r2, [r7, #56]	; 0x38
 8002b90:	4619      	mov	r1, r3
 8002b92:	f7fe f86b 	bl	8000c6c <vTaskPlaceOnUnorderedEventList>
 8002b96:	2300      	movs	r3, #0
 8002b98:	62fb      	str	r3, [r7, #44]	; 0x2c
 8002b9a:	f7fd fd7b 	bl	8000694 <xTaskResumeAll>
 8002b9e:	6178      	str	r0, [r7, #20]
 8002ba0:	6bbb      	ldr	r3, [r7, #56]	; 0x38
 8002ba2:	2b00      	cmp	r3, #0
 8002ba4:	d031      	beq.n	8002c0a <xEventGroupWaitBits+0x106>
 8002ba6:	697b      	ldr	r3, [r7, #20]
 8002ba8:	2b00      	cmp	r3, #0
 8002baa:	d107      	bne.n	8002bbc <xEventGroupWaitBits+0xb8>
 8002bac:	4b19      	ldr	r3, [pc, #100]	; (8002c14 <xEventGroupWaitBits+0x110>)
 8002bae:	f04f 5280 	mov.w	r2, #268435456	; 0x10000000
 8002bb2:	601a      	str	r2, [r3, #0]
 8002bb4:	f3bf 8f4f 	dsb	sy
 8002bb8:	f3bf 8f6f 	isb	sy
 8002bbc:	f7fe fb10 	bl	80011e0 <uxTaskResetEventItemValue>
 8002bc0:	62f8      	str	r0, [r7, #44]	; 0x2c
 8002bc2:	6afb      	ldr	r3, [r7, #44]	; 0x2c
 8002bc4:	f003 7300 	and.w	r3, r3, #33554432	; 0x2000000
 8002bc8:	2b00      	cmp	r3, #0
 8002bca:	d11a      	bne.n	8002c02 <xEventGroupWaitBits+0xfe>
 8002bcc:	f001 f963 	bl	8003e96 <vPortEnterCritical>
 8002bd0:	6a7b      	ldr	r3, [r7, #36]	; 0x24
 8002bd2:	681b      	ldr	r3, [r3, #0]
 8002bd4:	62fb      	str	r3, [r7, #44]	; 0x2c
 8002bd6:	683a      	ldr	r2, [r7, #0]
 8002bd8:	68b9      	ldr	r1, [r7, #8]
 8002bda:	6af8      	ldr	r0, [r7, #44]	; 0x2c
 8002bdc:	f000 f903 	bl	8002de6 <prvTestWaitCondition>
 8002be0:	4603      	mov	r3, r0
 8002be2:	2b00      	cmp	r3, #0
 8002be4:	d009      	beq.n	8002bfa <xEventGroupWaitBits+0xf6>
 8002be6:	687b      	ldr	r3, [r7, #4]
 8002be8:	2b00      	cmp	r3, #0
 8002bea:	d006      	beq.n	8002bfa <xEventGroupWaitBits+0xf6>
 8002bec:	6a7b      	ldr	r3, [r7, #36]	; 0x24
 8002bee:	681a      	ldr	r2, [r3, #0]
 8002bf0:	68bb      	ldr	r3, [r7, #8]
 8002bf2:	43db      	mvns	r3, r3
 8002bf4:	401a      	ands	r2, r3
 8002bf6:	6a7b      	ldr	r3, [r7, #36]	; 0x24
 8002bf8:	601a      	str	r2, [r3, #0]
 8002bfa:	2301      	movs	r3, #1
 8002bfc:	623b      	str	r3, [r7, #32]
 8002bfe:	f001 f965 	bl	8003ecc <vPortExitCritical>
 8002c02:	6afb      	ldr	r3, [r7, #44]	; 0x2c
 8002c04:	f023 437f 	bic.w	r3, r3, #4278190080	; 0xff000000
 8002c08:	62fb      	str	r3, [r7, #44]	; 0x2c
 8002c0a:	6afb      	ldr	r3, [r7, #44]	; 0x2c
 8002c0c:	4618      	mov	r0, r3
 8002c0e:	3730      	adds	r7, #48	; 0x30
 8002c10:	46bd      	mov	sp, r7
 8002c12:	bd80      	pop	{r7, pc}
 8002c14:	e000ed04 	and	lr, r0, r4, lsl #26

08002c18 <xEventGroupClearBits>:
 8002c18:	b580      	push	{r7, lr}
 8002c1a:	b084      	sub	sp, #16
 8002c1c:	af00      	add	r7, sp, #0
 8002c1e:	6078      	str	r0, [r7, #4]
 8002c20:	6039      	str	r1, [r7, #0]
 8002c22:	687b      	ldr	r3, [r7, #4]
 8002c24:	60fb      	str	r3, [r7, #12]
 8002c26:	f001 f936 	bl	8003e96 <vPortEnterCritical>
 8002c2a:	68fb      	ldr	r3, [r7, #12]
 8002c2c:	681b      	ldr	r3, [r3, #0]
 8002c2e:	60bb      	str	r3, [r7, #8]
 8002c30:	68fb      	ldr	r3, [r7, #12]
 8002c32:	681a      	ldr	r2, [r3, #0]
 8002c34:	683b      	ldr	r3, [r7, #0]
 8002c36:	43db      	mvns	r3, r3
 8002c38:	401a      	ands	r2, r3
 8002c3a:	68fb      	ldr	r3, [r7, #12]
 8002c3c:	601a      	str	r2, [r3, #0]
 8002c3e:	f001 f945 	bl	8003ecc <vPortExitCritical>
 8002c42:	68bb      	ldr	r3, [r7, #8]
 8002c44:	4618      	mov	r0, r3
 8002c46:	3710      	adds	r7, #16
 8002c48:	46bd      	mov	sp, r7
 8002c4a:	bd80      	pop	{r7, pc}

08002c4c <xEventGroupGetBitsFromISR>:
 8002c4c:	b480      	push	{r7}
 8002c4e:	b089      	sub	sp, #36	; 0x24
 8002c50:	af00      	add	r7, sp, #0
 8002c52:	6078      	str	r0, [r7, #4]
 8002c54:	687b      	ldr	r3, [r7, #4]
 8002c56:	61fb      	str	r3, [r7, #28]
 8002c58:	f3ef 8211 	mrs	r2, BASEPRI
 8002c5c:	f04f 0350 	mov.w	r3, #80	; 0x50
 8002c60:	f383 8811 	msr	BASEPRI, r3
 8002c64:	f3bf 8f6f 	isb	sy
 8002c68:	f3bf 8f4f 	dsb	sy
 8002c6c:	60fa      	str	r2, [r7, #12]
 8002c6e:	60bb      	str	r3, [r7, #8]
 8002c70:	68fb      	ldr	r3, [r7, #12]
 8002c72:	61bb      	str	r3, [r7, #24]
 8002c74:	69fb      	ldr	r3, [r7, #28]
 8002c76:	681b      	ldr	r3, [r3, #0]
 8002c78:	617b      	str	r3, [r7, #20]
 8002c7a:	69bb      	ldr	r3, [r7, #24]
 8002c7c:	613b      	str	r3, [r7, #16]
 8002c7e:	693b      	ldr	r3, [r7, #16]
 8002c80:	f383 8811 	msr	BASEPRI, r3
 8002c84:	bf00      	nop
 8002c86:	697b      	ldr	r3, [r7, #20]
 8002c88:	4618      	mov	r0, r3
 8002c8a:	3724      	adds	r7, #36	; 0x24
 8002c8c:	46bd      	mov	sp, r7
 8002c8e:	f85d 7b04 	ldr.w	r7, [sp], #4
 8002c92:	4770      	bx	lr

08002c94 <xEventGroupSetBits>:
 8002c94:	b580      	push	{r7, lr}
 8002c96:	b08c      	sub	sp, #48	; 0x30
 8002c98:	af00      	add	r7, sp, #0
 8002c9a:	6078      	str	r0, [r7, #4]
 8002c9c:	6039      	str	r1, [r7, #0]
 8002c9e:	2300      	movs	r3, #0
 8002ca0:	62bb      	str	r3, [r7, #40]	; 0x28
 8002ca2:	687b      	ldr	r3, [r7, #4]
 8002ca4:	623b      	str	r3, [r7, #32]
 8002ca6:	2300      	movs	r3, #0
 8002ca8:	627b      	str	r3, [r7, #36]	; 0x24
 8002caa:	6a3b      	ldr	r3, [r7, #32]
 8002cac:	3304      	adds	r3, #4
 8002cae:	61fb      	str	r3, [r7, #28]
 8002cb0:	69fb      	ldr	r3, [r7, #28]
 8002cb2:	3308      	adds	r3, #8
 8002cb4:	61bb      	str	r3, [r7, #24]
 8002cb6:	f7fd fcdf 	bl	8000678 <vTaskSuspendAll>
 8002cba:	69fb      	ldr	r3, [r7, #28]
 8002cbc:	68db      	ldr	r3, [r3, #12]
 8002cbe:	62fb      	str	r3, [r7, #44]	; 0x2c
 8002cc0:	6a3b      	ldr	r3, [r7, #32]
 8002cc2:	681a      	ldr	r2, [r3, #0]
 8002cc4:	683b      	ldr	r3, [r7, #0]
 8002cc6:	431a      	orrs	r2, r3
 8002cc8:	6a3b      	ldr	r3, [r7, #32]
 8002cca:	601a      	str	r2, [r3, #0]
 8002ccc:	e03c      	b.n	8002d48 <xEventGroupSetBits+0xb4>
 8002cce:	6afb      	ldr	r3, [r7, #44]	; 0x2c
 8002cd0:	685b      	ldr	r3, [r3, #4]
 8002cd2:	613b      	str	r3, [r7, #16]
 8002cd4:	6afb      	ldr	r3, [r7, #44]	; 0x2c
 8002cd6:	681b      	ldr	r3, [r3, #0]
 8002cd8:	60fb      	str	r3, [r7, #12]
 8002cda:	2300      	movs	r3, #0
 8002cdc:	627b      	str	r3, [r7, #36]	; 0x24
 8002cde:	68fb      	ldr	r3, [r7, #12]
 8002ce0:	f003 437f 	and.w	r3, r3, #4278190080	; 0xff000000
 8002ce4:	60bb      	str	r3, [r7, #8]
 8002ce6:	68fb      	ldr	r3, [r7, #12]
 8002ce8:	f023 437f 	bic.w	r3, r3, #4278190080	; 0xff000000
 8002cec:	60fb      	str	r3, [r7, #12]
 8002cee:	68bb      	ldr	r3, [r7, #8]
 8002cf0:	f003 6380 	and.w	r3, r3, #67108864	; 0x4000000
 8002cf4:	2b00      	cmp	r3, #0
 8002cf6:	d108      	bne.n	8002d0a <xEventGroupSetBits+0x76>
 8002cf8:	6a3b      	ldr	r3, [r7, #32]
 8002cfa:	681a      	ldr	r2, [r3, #0]
 8002cfc:	68fb      	ldr	r3, [r7, #12]
 8002cfe:	4013      	ands	r3, r2
 8002d00:	2b00      	cmp	r3, #0
 8002d02:	d00b      	beq.n	8002d1c <xEventGroupSetBits+0x88>
 8002d04:	2301      	movs	r3, #1
 8002d06:	627b      	str	r3, [r7, #36]	; 0x24
 8002d08:	e008      	b.n	8002d1c <xEventGroupSetBits+0x88>
 8002d0a:	6a3b      	ldr	r3, [r7, #32]
 8002d0c:	681a      	ldr	r2, [r3, #0]
 8002d0e:	68fb      	ldr	r3, [r7, #12]
 8002d10:	4013      	ands	r3, r2
 8002d12:	68fa      	ldr	r2, [r7, #12]
 8002d14:	429a      	cmp	r2, r3
 8002d16:	d101      	bne.n	8002d1c <xEventGroupSetBits+0x88>
 8002d18:	2301      	movs	r3, #1
 8002d1a:	627b      	str	r3, [r7, #36]	; 0x24
 8002d1c:	6a7b      	ldr	r3, [r7, #36]	; 0x24
 8002d1e:	2b00      	cmp	r3, #0
 8002d20:	d010      	beq.n	8002d44 <xEventGroupSetBits+0xb0>
 8002d22:	68bb      	ldr	r3, [r7, #8]
 8002d24:	f003 7380 	and.w	r3, r3, #16777216	; 0x1000000
 8002d28:	2b00      	cmp	r3, #0
 8002d2a:	d003      	beq.n	8002d34 <xEventGroupSetBits+0xa0>
 8002d2c:	6aba      	ldr	r2, [r7, #40]	; 0x28
 8002d2e:	68fb      	ldr	r3, [r7, #12]
 8002d30:	4313      	orrs	r3, r2
 8002d32:	62bb      	str	r3, [r7, #40]	; 0x28
 8002d34:	6a3b      	ldr	r3, [r7, #32]
 8002d36:	681b      	ldr	r3, [r3, #0]
 8002d38:	f043 7300 	orr.w	r3, r3, #33554432	; 0x2000000
 8002d3c:	4619      	mov	r1, r3
 8002d3e:	6af8      	ldr	r0, [r7, #44]	; 0x2c
 8002d40:	f7fe f896 	bl	8000e70 <vTaskRemoveFromUnorderedEventList>
 8002d44:	693b      	ldr	r3, [r7, #16]
 8002d46:	62fb      	str	r3, [r7, #44]	; 0x2c
 8002d48:	6afa      	ldr	r2, [r7, #44]	; 0x2c
 8002d4a:	69bb      	ldr	r3, [r7, #24]
 8002d4c:	429a      	cmp	r2, r3
 8002d4e:	d1be      	bne.n	8002cce <xEventGroupSetBits+0x3a>
 8002d50:	6a3b      	ldr	r3, [r7, #32]
 8002d52:	681a      	ldr	r2, [r3, #0]
 8002d54:	6abb      	ldr	r3, [r7, #40]	; 0x28
 8002d56:	43db      	mvns	r3, r3
 8002d58:	401a      	ands	r2, r3
 8002d5a:	6a3b      	ldr	r3, [r7, #32]
 8002d5c:	601a      	str	r2, [r3, #0]
 8002d5e:	6a3b      	ldr	r3, [r7, #32]
 8002d60:	681b      	ldr	r3, [r3, #0]
 8002d62:	617b      	str	r3, [r7, #20]
 8002d64:	f7fd fc96 	bl	8000694 <xTaskResumeAll>
 8002d68:	697b      	ldr	r3, [r7, #20]
 8002d6a:	4618      	mov	r0, r3
 8002d6c:	3730      	adds	r7, #48	; 0x30
 8002d6e:	46bd      	mov	sp, r7
 8002d70:	bd80      	pop	{r7, pc}

08002d72 <vEventGroupDelete>:
 8002d72:	b580      	push	{r7, lr}
 8002d74:	b084      	sub	sp, #16
 8002d76:	af00      	add	r7, sp, #0
 8002d78:	6078      	str	r0, [r7, #4]
 8002d7a:	687b      	ldr	r3, [r7, #4]
 8002d7c:	60fb      	str	r3, [r7, #12]
 8002d7e:	68fb      	ldr	r3, [r7, #12]
 8002d80:	3304      	adds	r3, #4
 8002d82:	60bb      	str	r3, [r7, #8]
 8002d84:	f7fd fc78 	bl	8000678 <vTaskSuspendAll>
 8002d88:	e006      	b.n	8002d98 <vEventGroupDelete+0x26>
 8002d8a:	68bb      	ldr	r3, [r7, #8]
 8002d8c:	68db      	ldr	r3, [r3, #12]
 8002d8e:	f04f 7100 	mov.w	r1, #33554432	; 0x2000000
 8002d92:	4618      	mov	r0, r3
 8002d94:	f7fe f86c 	bl	8000e70 <vTaskRemoveFromUnorderedEventList>
 8002d98:	68bb      	ldr	r3, [r7, #8]
 8002d9a:	681b      	ldr	r3, [r3, #0]
 8002d9c:	2b00      	cmp	r3, #0
 8002d9e:	d1f4      	bne.n	8002d8a <vEventGroupDelete+0x18>
 8002da0:	f7fd fc78 	bl	8000694 <xTaskResumeAll>
 8002da4:	68f8      	ldr	r0, [r7, #12]
 8002da6:	f000 fdf5 	bl	8003994 <vPortFree>
 8002daa:	bf00      	nop
 8002dac:	3710      	adds	r7, #16
 8002dae:	46bd      	mov	sp, r7
 8002db0:	bd80      	pop	{r7, pc}

08002db2 <vEventGroupSetBitsCallback>:
 8002db2:	b580      	push	{r7, lr}
 8002db4:	b082      	sub	sp, #8
 8002db6:	af00      	add	r7, sp, #0
 8002db8:	6078      	str	r0, [r7, #4]
 8002dba:	6039      	str	r1, [r7, #0]
 8002dbc:	6839      	ldr	r1, [r7, #0]
 8002dbe:	6878      	ldr	r0, [r7, #4]
 8002dc0:	f7ff ff68 	bl	8002c94 <xEventGroupSetBits>
 8002dc4:	bf00      	nop
 8002dc6:	3708      	adds	r7, #8
 8002dc8:	46bd      	mov	sp, r7
 8002dca:	bd80      	pop	{r7, pc}

08002dcc <vEventGroupClearBitsCallback>:
 8002dcc:	b580      	push	{r7, lr}
 8002dce:	b082      	sub	sp, #8
 8002dd0:	af00      	add	r7, sp, #0
 8002dd2:	6078      	str	r0, [r7, #4]
 8002dd4:	6039      	str	r1, [r7, #0]
 8002dd6:	6839      	ldr	r1, [r7, #0]
 8002dd8:	6878      	ldr	r0, [r7, #4]
 8002dda:	f7ff ff1d 	bl	8002c18 <xEventGroupClearBits>
 8002dde:	bf00      	nop
 8002de0:	3708      	adds	r7, #8
 8002de2:	46bd      	mov	sp, r7
 8002de4:	bd80      	pop	{r7, pc}

08002de6 <prvTestWaitCondition>:
 8002de6:	b480      	push	{r7}
 8002de8:	b087      	sub	sp, #28
 8002dea:	af00      	add	r7, sp, #0
 8002dec:	60f8      	str	r0, [r7, #12]
 8002dee:	60b9      	str	r1, [r7, #8]
 8002df0:	607a      	str	r2, [r7, #4]
 8002df2:	2300      	movs	r3, #0
 8002df4:	617b      	str	r3, [r7, #20]
 8002df6:	687b      	ldr	r3, [r7, #4]
 8002df8:	2b00      	cmp	r3, #0
 8002dfa:	d107      	bne.n	8002e0c <prvTestWaitCondition+0x26>
 8002dfc:	68fa      	ldr	r2, [r7, #12]
 8002dfe:	68bb      	ldr	r3, [r7, #8]
 8002e00:	4013      	ands	r3, r2
 8002e02:	2b00      	cmp	r3, #0
 8002e04:	d00a      	beq.n	8002e1c <prvTestWaitCondition+0x36>
 8002e06:	2301      	movs	r3, #1
 8002e08:	617b      	str	r3, [r7, #20]
 8002e0a:	e007      	b.n	8002e1c <prvTestWaitCondition+0x36>
 8002e0c:	68fa      	ldr	r2, [r7, #12]
 8002e0e:	68bb      	ldr	r3, [r7, #8]
 8002e10:	4013      	ands	r3, r2
 8002e12:	68ba      	ldr	r2, [r7, #8]
 8002e14:	429a      	cmp	r2, r3
 8002e16:	d101      	bne.n	8002e1c <prvTestWaitCondition+0x36>
 8002e18:	2301      	movs	r3, #1
 8002e1a:	617b      	str	r3, [r7, #20]
 8002e1c:	697b      	ldr	r3, [r7, #20]
 8002e1e:	4618      	mov	r0, r3
 8002e20:	371c      	adds	r7, #28
 8002e22:	46bd      	mov	sp, r7
 8002e24:	f85d 7b04 	ldr.w	r7, [sp], #4
 8002e28:	4770      	bx	lr
 8002e2a:	bf00      	nop

08002e2c <xStreamBufferGenericCreate>:
 8002e2c:	b580      	push	{r7, lr}
 8002e2e:	b08a      	sub	sp, #40	; 0x28
 8002e30:	af04      	add	r7, sp, #16
 8002e32:	60f8      	str	r0, [r7, #12]
 8002e34:	60b9      	str	r1, [r7, #8]
 8002e36:	607a      	str	r2, [r7, #4]
 8002e38:	603b      	str	r3, [r7, #0]
 8002e3a:	687b      	ldr	r3, [r7, #4]
 8002e3c:	2b01      	cmp	r3, #1
 8002e3e:	d102      	bne.n	8002e46 <xStreamBufferGenericCreate+0x1a>
 8002e40:	2301      	movs	r3, #1
 8002e42:	74fb      	strb	r3, [r7, #19]
 8002e44:	e007      	b.n	8002e56 <xStreamBufferGenericCreate+0x2a>
 8002e46:	687b      	ldr	r3, [r7, #4]
 8002e48:	2b02      	cmp	r3, #2
 8002e4a:	d102      	bne.n	8002e52 <xStreamBufferGenericCreate+0x26>
 8002e4c:	2304      	movs	r3, #4
 8002e4e:	74fb      	strb	r3, [r7, #19]
 8002e50:	e001      	b.n	8002e56 <xStreamBufferGenericCreate+0x2a>
 8002e52:	2300      	movs	r3, #0
 8002e54:	74fb      	strb	r3, [r7, #19]
 8002e56:	68bb      	ldr	r3, [r7, #8]
 8002e58:	2b00      	cmp	r3, #0
 8002e5a:	d101      	bne.n	8002e60 <xStreamBufferGenericCreate+0x34>
 8002e5c:	2301      	movs	r3, #1
 8002e5e:	60bb      	str	r3, [r7, #8]
 8002e60:	68fb      	ldr	r3, [r7, #12]
 8002e62:	f113 0f26 	cmn.w	r3, #38	; 0x26
 8002e66:	d809      	bhi.n	8002e7c <xStreamBufferGenericCreate+0x50>
 8002e68:	68fb      	ldr	r3, [r7, #12]
 8002e6a:	3301      	adds	r3, #1
 8002e6c:	60fb      	str	r3, [r7, #12]
 8002e6e:	68fb      	ldr	r3, [r7, #12]
 8002e70:	3324      	adds	r3, #36	; 0x24
 8002e72:	4618      	mov	r0, r3
 8002e74:	f000 fcdc 	bl	8003830 <pvPortMalloc>
 8002e78:	6178      	str	r0, [r7, #20]
 8002e7a:	e001      	b.n	8002e80 <xStreamBufferGenericCreate+0x54>
 8002e7c:	2300      	movs	r3, #0
 8002e7e:	617b      	str	r3, [r7, #20]
 8002e80:	697b      	ldr	r3, [r7, #20]
 8002e82:	2b00      	cmp	r3, #0
 8002e84:	d00d      	beq.n	8002ea2 <xStreamBufferGenericCreate+0x76>
 8002e86:	697b      	ldr	r3, [r7, #20]
 8002e88:	f103 0124 	add.w	r1, r3, #36	; 0x24
 8002e8c:	6a3b      	ldr	r3, [r7, #32]
 8002e8e:	9302      	str	r3, [sp, #8]
 8002e90:	683b      	ldr	r3, [r7, #0]
 8002e92:	9301      	str	r3, [sp, #4]
 8002e94:	7cfb      	ldrb	r3, [r7, #19]
 8002e96:	9300      	str	r3, [sp, #0]
 8002e98:	68bb      	ldr	r3, [r7, #8]
 8002e9a:	68fa      	ldr	r2, [r7, #12]
 8002e9c:	6978      	ldr	r0, [r7, #20]
 8002e9e:	f000 fc8a 	bl	80037b6 <prvInitialiseNewStreamBuffer>
 8002ea2:	697b      	ldr	r3, [r7, #20]
 8002ea4:	4618      	mov	r0, r3
 8002ea6:	3718      	adds	r7, #24
 8002ea8:	46bd      	mov	sp, r7
 8002eaa:	bd80      	pop	{r7, pc}

08002eac <vStreamBufferDelete>:
 8002eac:	b580      	push	{r7, lr}
 8002eae:	b084      	sub	sp, #16
 8002eb0:	af00      	add	r7, sp, #0
 8002eb2:	6078      	str	r0, [r7, #4]
 8002eb4:	687b      	ldr	r3, [r7, #4]
 8002eb6:	60fb      	str	r3, [r7, #12]
 8002eb8:	68fb      	ldr	r3, [r7, #12]
 8002eba:	7f1b      	ldrb	r3, [r3, #28]
 8002ebc:	f003 0302 	and.w	r3, r3, #2
 8002ec0:	2b00      	cmp	r3, #0
 8002ec2:	d103      	bne.n	8002ecc <vStreamBufferDelete+0x20>
 8002ec4:	68f8      	ldr	r0, [r7, #12]
 8002ec6:	f000 fd65 	bl	8003994 <vPortFree>
 8002eca:	e004      	b.n	8002ed6 <vStreamBufferDelete+0x2a>
 8002ecc:	2224      	movs	r2, #36	; 0x24
 8002ece:	2100      	movs	r1, #0
 8002ed0:	68f8      	ldr	r0, [r7, #12]
 8002ed2:	f005 ff89 	bl	8008de8 <memset>
 8002ed6:	bf00      	nop
 8002ed8:	3710      	adds	r7, #16
 8002eda:	46bd      	mov	sp, r7
 8002edc:	bd80      	pop	{r7, pc}

08002ede <xStreamBufferReset>:
 8002ede:	b590      	push	{r4, r7, lr}
 8002ee0:	b08b      	sub	sp, #44	; 0x2c
 8002ee2:	af04      	add	r7, sp, #16
 8002ee4:	6078      	str	r0, [r7, #4]
 8002ee6:	687b      	ldr	r3, [r7, #4]
 8002ee8:	613b      	str	r3, [r7, #16]
 8002eea:	2300      	movs	r3, #0
 8002eec:	617b      	str	r3, [r7, #20]
 8002eee:	2300      	movs	r3, #0
 8002ef0:	60fb      	str	r3, [r7, #12]
 8002ef2:	2300      	movs	r3, #0
 8002ef4:	60bb      	str	r3, [r7, #8]
 8002ef6:	f000 ffce 	bl	8003e96 <vPortEnterCritical>
 8002efa:	693b      	ldr	r3, [r7, #16]
 8002efc:	691b      	ldr	r3, [r3, #16]
 8002efe:	2b00      	cmp	r3, #0
 8002f00:	d117      	bne.n	8002f32 <xStreamBufferReset+0x54>
 8002f02:	693b      	ldr	r3, [r7, #16]
 8002f04:	695b      	ldr	r3, [r3, #20]
 8002f06:	2b00      	cmp	r3, #0
 8002f08:	d113      	bne.n	8002f32 <xStreamBufferReset+0x54>
 8002f0a:	693b      	ldr	r3, [r7, #16]
 8002f0c:	6999      	ldr	r1, [r3, #24]
 8002f0e:	693b      	ldr	r3, [r7, #16]
 8002f10:	6898      	ldr	r0, [r3, #8]
 8002f12:	693b      	ldr	r3, [r7, #16]
 8002f14:	68dc      	ldr	r4, [r3, #12]
 8002f16:	693b      	ldr	r3, [r7, #16]
 8002f18:	7f1b      	ldrb	r3, [r3, #28]
 8002f1a:	68ba      	ldr	r2, [r7, #8]
 8002f1c:	9202      	str	r2, [sp, #8]
 8002f1e:	68fa      	ldr	r2, [r7, #12]
 8002f20:	9201      	str	r2, [sp, #4]
 8002f22:	9300      	str	r3, [sp, #0]
 8002f24:	4623      	mov	r3, r4
 8002f26:	4602      	mov	r2, r0
 8002f28:	6938      	ldr	r0, [r7, #16]
 8002f2a:	f000 fc44 	bl	80037b6 <prvInitialiseNewStreamBuffer>
 8002f2e:	2301      	movs	r3, #1
 8002f30:	617b      	str	r3, [r7, #20]
 8002f32:	f000 ffcb 	bl	8003ecc <vPortExitCritical>
 8002f36:	697b      	ldr	r3, [r7, #20]
 8002f38:	4618      	mov	r0, r3
 8002f3a:	371c      	adds	r7, #28
 8002f3c:	46bd      	mov	sp, r7
 8002f3e:	bd90      	pop	{r4, r7, pc}

08002f40 <xStreamBufferResetFromISR>:
 8002f40:	b590      	push	{r4, r7, lr}
 8002f42:	b08f      	sub	sp, #60	; 0x3c
 8002f44:	af04      	add	r7, sp, #16
 8002f46:	6078      	str	r0, [r7, #4]
 8002f48:	687b      	ldr	r3, [r7, #4]
 8002f4a:	623b      	str	r3, [r7, #32]
 8002f4c:	2300      	movs	r3, #0
 8002f4e:	627b      	str	r3, [r7, #36]	; 0x24
 8002f50:	2300      	movs	r3, #0
 8002f52:	61fb      	str	r3, [r7, #28]
 8002f54:	2300      	movs	r3, #0
 8002f56:	61bb      	str	r3, [r7, #24]
 8002f58:	f3ef 8211 	mrs	r2, BASEPRI
 8002f5c:	f04f 0350 	mov.w	r3, #80	; 0x50
 8002f60:	f383 8811 	msr	BASEPRI, r3
 8002f64:	f3bf 8f6f 	isb	sy
 8002f68:	f3bf 8f4f 	dsb	sy
 8002f6c:	613a      	str	r2, [r7, #16]
 8002f6e:	60fb      	str	r3, [r7, #12]
 8002f70:	693b      	ldr	r3, [r7, #16]
 8002f72:	617b      	str	r3, [r7, #20]
 8002f74:	6a3b      	ldr	r3, [r7, #32]
 8002f76:	691b      	ldr	r3, [r3, #16]
 8002f78:	2b00      	cmp	r3, #0
 8002f7a:	d117      	bne.n	8002fac <xStreamBufferResetFromISR+0x6c>
 8002f7c:	6a3b      	ldr	r3, [r7, #32]
 8002f7e:	695b      	ldr	r3, [r3, #20]
 8002f80:	2b00      	cmp	r3, #0
 8002f82:	d113      	bne.n	8002fac <xStreamBufferResetFromISR+0x6c>
 8002f84:	6a3b      	ldr	r3, [r7, #32]
 8002f86:	6999      	ldr	r1, [r3, #24]
 8002f88:	6a3b      	ldr	r3, [r7, #32]
 8002f8a:	6898      	ldr	r0, [r3, #8]
 8002f8c:	6a3b      	ldr	r3, [r7, #32]
 8002f8e:	68dc      	ldr	r4, [r3, #12]
 8002f90:	6a3b      	ldr	r3, [r7, #32]
 8002f92:	7f1b      	ldrb	r3, [r3, #28]
 8002f94:	69ba      	ldr	r2, [r7, #24]
 8002f96:	9202      	str	r2, [sp, #8]
 8002f98:	69fa      	ldr	r2, [r7, #28]
 8002f9a:	9201      	str	r2, [sp, #4]
 8002f9c:	9300      	str	r3, [sp, #0]
 8002f9e:	4623      	mov	r3, r4
 8002fa0:	4602      	mov	r2, r0
 8002fa2:	6a38      	ldr	r0, [r7, #32]
 8002fa4:	f000 fc07 	bl	80037b6 <prvInitialiseNewStreamBuffer>
 8002fa8:	2301      	movs	r3, #1
 8002faa:	627b      	str	r3, [r7, #36]	; 0x24
 8002fac:	697b      	ldr	r3, [r7, #20]
 8002fae:	60bb      	str	r3, [r7, #8]
 8002fb0:	68bb      	ldr	r3, [r7, #8]
 8002fb2:	f383 8811 	msr	BASEPRI, r3
 8002fb6:	bf00      	nop
 8002fb8:	6a7b      	ldr	r3, [r7, #36]	; 0x24
 8002fba:	4618      	mov	r0, r3
 8002fbc:	372c      	adds	r7, #44	; 0x2c
 8002fbe:	46bd      	mov	sp, r7
 8002fc0:	bd90      	pop	{r4, r7, pc}

08002fc2 <xStreamBufferSetTriggerLevel>:
 8002fc2:	b480      	push	{r7}
 8002fc4:	b085      	sub	sp, #20
 8002fc6:	af00      	add	r7, sp, #0
 8002fc8:	6078      	str	r0, [r7, #4]
 8002fca:	6039      	str	r1, [r7, #0]
 8002fcc:	687b      	ldr	r3, [r7, #4]
 8002fce:	60bb      	str	r3, [r7, #8]
 8002fd0:	683b      	ldr	r3, [r7, #0]
 8002fd2:	2b00      	cmp	r3, #0
 8002fd4:	d101      	bne.n	8002fda <xStreamBufferSetTriggerLevel+0x18>
 8002fd6:	2301      	movs	r3, #1
 8002fd8:	603b      	str	r3, [r7, #0]
 8002fda:	68bb      	ldr	r3, [r7, #8]
 8002fdc:	689b      	ldr	r3, [r3, #8]
 8002fde:	683a      	ldr	r2, [r7, #0]
 8002fe0:	429a      	cmp	r2, r3
 8002fe2:	d205      	bcs.n	8002ff0 <xStreamBufferSetTriggerLevel+0x2e>
 8002fe4:	68bb      	ldr	r3, [r7, #8]
 8002fe6:	683a      	ldr	r2, [r7, #0]
 8002fe8:	60da      	str	r2, [r3, #12]
 8002fea:	2301      	movs	r3, #1
 8002fec:	60fb      	str	r3, [r7, #12]
 8002fee:	e001      	b.n	8002ff4 <xStreamBufferSetTriggerLevel+0x32>
 8002ff0:	2300      	movs	r3, #0
 8002ff2:	60fb      	str	r3, [r7, #12]
 8002ff4:	68fb      	ldr	r3, [r7, #12]
 8002ff6:	4618      	mov	r0, r3
 8002ff8:	3714      	adds	r7, #20
 8002ffa:	46bd      	mov	sp, r7
 8002ffc:	f85d 7b04 	ldr.w	r7, [sp], #4
 8003000:	4770      	bx	lr

08003002 <xStreamBufferSpacesAvailable>:
 8003002:	b480      	push	{r7}
 8003004:	b087      	sub	sp, #28
 8003006:	af00      	add	r7, sp, #0
 8003008:	6078      	str	r0, [r7, #4]
 800300a:	687b      	ldr	r3, [r7, #4]
 800300c:	613b      	str	r3, [r7, #16]
 800300e:	693b      	ldr	r3, [r7, #16]
 8003010:	681b      	ldr	r3, [r3, #0]
 8003012:	60fb      	str	r3, [r7, #12]
 8003014:	693b      	ldr	r3, [r7, #16]
 8003016:	689a      	ldr	r2, [r3, #8]
 8003018:	693b      	ldr	r3, [r7, #16]
 800301a:	681b      	ldr	r3, [r3, #0]
 800301c:	4413      	add	r3, r2
 800301e:	617b      	str	r3, [r7, #20]
 8003020:	693b      	ldr	r3, [r7, #16]
 8003022:	685b      	ldr	r3, [r3, #4]
 8003024:	697a      	ldr	r2, [r7, #20]
 8003026:	1ad3      	subs	r3, r2, r3
 8003028:	617b      	str	r3, [r7, #20]
 800302a:	693b      	ldr	r3, [r7, #16]
 800302c:	681b      	ldr	r3, [r3, #0]
 800302e:	68fa      	ldr	r2, [r7, #12]
 8003030:	429a      	cmp	r2, r3
 8003032:	d1ec      	bne.n	800300e <xStreamBufferSpacesAvailable+0xc>
 8003034:	697b      	ldr	r3, [r7, #20]
 8003036:	3b01      	subs	r3, #1
 8003038:	617b      	str	r3, [r7, #20]
 800303a:	693b      	ldr	r3, [r7, #16]
 800303c:	689b      	ldr	r3, [r3, #8]
 800303e:	697a      	ldr	r2, [r7, #20]
 8003040:	429a      	cmp	r2, r3
 8003042:	d304      	bcc.n	800304e <xStreamBufferSpacesAvailable+0x4c>
 8003044:	693b      	ldr	r3, [r7, #16]
 8003046:	689b      	ldr	r3, [r3, #8]
 8003048:	697a      	ldr	r2, [r7, #20]
 800304a:	1ad3      	subs	r3, r2, r3
 800304c:	617b      	str	r3, [r7, #20]
 800304e:	697b      	ldr	r3, [r7, #20]
 8003050:	4618      	mov	r0, r3
 8003052:	371c      	adds	r7, #28
 8003054:	46bd      	mov	sp, r7
 8003056:	f85d 7b04 	ldr.w	r7, [sp], #4
 800305a:	4770      	bx	lr

0800305c <xStreamBufferBytesAvailable>:
 800305c:	b580      	push	{r7, lr}
 800305e:	b084      	sub	sp, #16
 8003060:	af00      	add	r7, sp, #0
 8003062:	6078      	str	r0, [r7, #4]
 8003064:	687b      	ldr	r3, [r7, #4]
 8003066:	60fb      	str	r3, [r7, #12]
 8003068:	68f8      	ldr	r0, [r7, #12]
 800306a:	f000 fb84 	bl	8003776 <prvBytesInBuffer>
 800306e:	60b8      	str	r0, [r7, #8]
 8003070:	68bb      	ldr	r3, [r7, #8]
 8003072:	4618      	mov	r0, r3
 8003074:	3710      	adds	r7, #16
 8003076:	46bd      	mov	sp, r7
 8003078:	bd80      	pop	{r7, pc}

0800307a <xStreamBufferSend>:
 800307a:	b580      	push	{r7, lr}
 800307c:	b08e      	sub	sp, #56	; 0x38
 800307e:	af02      	add	r7, sp, #8
 8003080:	60f8      	str	r0, [r7, #12]
 8003082:	60b9      	str	r1, [r7, #8]
 8003084:	607a      	str	r2, [r7, #4]
 8003086:	603b      	str	r3, [r7, #0]
 8003088:	68fb      	ldr	r3, [r7, #12]
 800308a:	627b      	str	r3, [r7, #36]	; 0x24
 800308c:	2300      	movs	r3, #0
 800308e:	62fb      	str	r3, [r7, #44]	; 0x2c
 8003090:	687b      	ldr	r3, [r7, #4]
 8003092:	62bb      	str	r3, [r7, #40]	; 0x28
 8003094:	2300      	movs	r3, #0
 8003096:	623b      	str	r3, [r7, #32]
 8003098:	6a7b      	ldr	r3, [r7, #36]	; 0x24
 800309a:	689b      	ldr	r3, [r3, #8]
 800309c:	3b01      	subs	r3, #1
 800309e:	623b      	str	r3, [r7, #32]
 80030a0:	6a7b      	ldr	r3, [r7, #36]	; 0x24
 80030a2:	7f1b      	ldrb	r3, [r3, #28]
 80030a4:	f003 0301 	and.w	r3, r3, #1
 80030a8:	2b00      	cmp	r3, #0
 80030aa:	d009      	beq.n	80030c0 <xStreamBufferSend+0x46>
 80030ac:	6abb      	ldr	r3, [r7, #40]	; 0x28
 80030ae:	3304      	adds	r3, #4
 80030b0:	62bb      	str	r3, [r7, #40]	; 0x28
 80030b2:	6aba      	ldr	r2, [r7, #40]	; 0x28
 80030b4:	6a3b      	ldr	r3, [r7, #32]
 80030b6:	429a      	cmp	r2, r3
 80030b8:	d908      	bls.n	80030cc <xStreamBufferSend+0x52>
 80030ba:	2300      	movs	r3, #0
 80030bc:	603b      	str	r3, [r7, #0]
 80030be:	e005      	b.n	80030cc <xStreamBufferSend+0x52>
 80030c0:	6aba      	ldr	r2, [r7, #40]	; 0x28
 80030c2:	6a3b      	ldr	r3, [r7, #32]
 80030c4:	429a      	cmp	r2, r3
 80030c6:	d901      	bls.n	80030cc <xStreamBufferSend+0x52>
 80030c8:	6a3b      	ldr	r3, [r7, #32]
 80030ca:	62bb      	str	r3, [r7, #40]	; 0x28
 80030cc:	683b      	ldr	r3, [r7, #0]
 80030ce:	2b00      	cmp	r3, #0
 80030d0:	d035      	beq.n	800313e <xStreamBufferSend+0xc4>
 80030d2:	f107 0314 	add.w	r3, r7, #20
 80030d6:	4618      	mov	r0, r3
 80030d8:	f7fd ff6e 	bl	8000fb8 <vTaskSetTimeOutState>
 80030dc:	f000 fedb 	bl	8003e96 <vPortEnterCritical>
 80030e0:	6a78      	ldr	r0, [r7, #36]	; 0x24
 80030e2:	f7ff ff8e 	bl	8003002 <xStreamBufferSpacesAvailable>
 80030e6:	62f8      	str	r0, [r7, #44]	; 0x2c
 80030e8:	6afa      	ldr	r2, [r7, #44]	; 0x2c
 80030ea:	6abb      	ldr	r3, [r7, #40]	; 0x28
 80030ec:	429a      	cmp	r2, r3
 80030ee:	d20b      	bcs.n	8003108 <xStreamBufferSend+0x8e>
 80030f0:	6a7b      	ldr	r3, [r7, #36]	; 0x24
 80030f2:	6a1b      	ldr	r3, [r3, #32]
 80030f4:	4619      	mov	r1, r3
 80030f6:	2000      	movs	r0, #0
 80030f8:	f7fe fc82 	bl	8001a00 <xTaskGenericNotifyStateClear>
 80030fc:	f7fe f848 	bl	8001190 <xTaskGetCurrentTaskHandle>
 8003100:	4602      	mov	r2, r0
 8003102:	6a7b      	ldr	r3, [r7, #36]	; 0x24
 8003104:	615a      	str	r2, [r3, #20]
 8003106:	e002      	b.n	800310e <xStreamBufferSend+0x94>
 8003108:	f000 fee0 	bl	8003ecc <vPortExitCritical>
 800310c:	e017      	b.n	800313e <xStreamBufferSend+0xc4>
 800310e:	f000 fedd 	bl	8003ecc <vPortExitCritical>
 8003112:	6a7b      	ldr	r3, [r7, #36]	; 0x24
 8003114:	6a18      	ldr	r0, [r3, #32]
 8003116:	683b      	ldr	r3, [r7, #0]
 8003118:	9300      	str	r3, [sp, #0]
 800311a:	2300      	movs	r3, #0
 800311c:	2200      	movs	r2, #0
 800311e:	2100      	movs	r1, #0
 8003120:	f7fe f8ee 	bl	8001300 <xTaskGenericNotifyWait>
 8003124:	6a7b      	ldr	r3, [r7, #36]	; 0x24
 8003126:	2200      	movs	r2, #0
 8003128:	615a      	str	r2, [r3, #20]
 800312a:	463a      	mov	r2, r7
 800312c:	f107 0314 	add.w	r3, r7, #20
 8003130:	4611      	mov	r1, r2
 8003132:	4618      	mov	r0, r3
 8003134:	f7fd ff6e 	bl	8001014 <xTaskCheckForTimeOut>
 8003138:	4603      	mov	r3, r0
 800313a:	2b00      	cmp	r3, #0
 800313c:	d0ce      	beq.n	80030dc <xStreamBufferSend+0x62>
 800313e:	6afb      	ldr	r3, [r7, #44]	; 0x2c
 8003140:	2b00      	cmp	r3, #0
 8003142:	d103      	bne.n	800314c <xStreamBufferSend+0xd2>
 8003144:	6a78      	ldr	r0, [r7, #36]	; 0x24
 8003146:	f7ff ff5c 	bl	8003002 <xStreamBufferSpacesAvailable>
 800314a:	62f8      	str	r0, [r7, #44]	; 0x2c
 800314c:	6abb      	ldr	r3, [r7, #40]	; 0x28
 800314e:	9300      	str	r3, [sp, #0]
 8003150:	6afb      	ldr	r3, [r7, #44]	; 0x2c
 8003152:	687a      	ldr	r2, [r7, #4]
 8003154:	68b9      	ldr	r1, [r7, #8]
 8003156:	6a78      	ldr	r0, [r7, #36]	; 0x24
 8003158:	f000 f87e 	bl	8003258 <prvWriteMessageToBuffer>
 800315c:	61f8      	str	r0, [r7, #28]
 800315e:	69fb      	ldr	r3, [r7, #28]
 8003160:	2b00      	cmp	r3, #0
 8003162:	d01c      	beq.n	800319e <xStreamBufferSend+0x124>
 8003164:	6a78      	ldr	r0, [r7, #36]	; 0x24
 8003166:	f000 fb06 	bl	8003776 <prvBytesInBuffer>
 800316a:	4602      	mov	r2, r0
 800316c:	6a7b      	ldr	r3, [r7, #36]	; 0x24
 800316e:	68db      	ldr	r3, [r3, #12]
 8003170:	429a      	cmp	r2, r3
 8003172:	d314      	bcc.n	800319e <xStreamBufferSend+0x124>
 8003174:	f7fd fa80 	bl	8000678 <vTaskSuspendAll>
 8003178:	6a7b      	ldr	r3, [r7, #36]	; 0x24
 800317a:	691b      	ldr	r3, [r3, #16]
 800317c:	2b00      	cmp	r3, #0
 800317e:	d00c      	beq.n	800319a <xStreamBufferSend+0x120>
 8003180:	6a7b      	ldr	r3, [r7, #36]	; 0x24
 8003182:	6918      	ldr	r0, [r3, #16]
 8003184:	6a7b      	ldr	r3, [r7, #36]	; 0x24
 8003186:	6a19      	ldr	r1, [r3, #32]
 8003188:	2300      	movs	r3, #0
 800318a:	9300      	str	r3, [sp, #0]
 800318c:	2300      	movs	r3, #0
 800318e:	2200      	movs	r2, #0
 8003190:	f7fe f948 	bl	8001424 <xTaskGenericNotify>
 8003194:	6a7b      	ldr	r3, [r7, #36]	; 0x24
 8003196:	2200      	movs	r2, #0
 8003198:	611a      	str	r2, [r3, #16]
 800319a:	f7fd fa7b 	bl	8000694 <xTaskResumeAll>
 800319e:	69fb      	ldr	r3, [r7, #28]
 80031a0:	4618      	mov	r0, r3
 80031a2:	3730      	adds	r7, #48	; 0x30
 80031a4:	46bd      	mov	sp, r7
 80031a6:	bd80      	pop	{r7, pc}

080031a8 <xStreamBufferSendFromISR>:
 80031a8:	b580      	push	{r7, lr}
 80031aa:	b08e      	sub	sp, #56	; 0x38
 80031ac:	af02      	add	r7, sp, #8
 80031ae:	60f8      	str	r0, [r7, #12]
 80031b0:	60b9      	str	r1, [r7, #8]
 80031b2:	607a      	str	r2, [r7, #4]
 80031b4:	603b      	str	r3, [r7, #0]
 80031b6:	68fb      	ldr	r3, [r7, #12]
 80031b8:	62bb      	str	r3, [r7, #40]	; 0x28
 80031ba:	687b      	ldr	r3, [r7, #4]
 80031bc:	62fb      	str	r3, [r7, #44]	; 0x2c
 80031be:	6abb      	ldr	r3, [r7, #40]	; 0x28
 80031c0:	7f1b      	ldrb	r3, [r3, #28]
 80031c2:	f003 0301 	and.w	r3, r3, #1
 80031c6:	2b00      	cmp	r3, #0
 80031c8:	d002      	beq.n	80031d0 <xStreamBufferSendFromISR+0x28>
 80031ca:	6afb      	ldr	r3, [r7, #44]	; 0x2c
 80031cc:	3304      	adds	r3, #4
 80031ce:	62fb      	str	r3, [r7, #44]	; 0x2c
 80031d0:	6ab8      	ldr	r0, [r7, #40]	; 0x28
 80031d2:	f7ff ff16 	bl	8003002 <xStreamBufferSpacesAvailable>
 80031d6:	6278      	str	r0, [r7, #36]	; 0x24
 80031d8:	6afb      	ldr	r3, [r7, #44]	; 0x2c
 80031da:	9300      	str	r3, [sp, #0]
 80031dc:	6a7b      	ldr	r3, [r7, #36]	; 0x24
 80031de:	687a      	ldr	r2, [r7, #4]
 80031e0:	68b9      	ldr	r1, [r7, #8]
 80031e2:	6ab8      	ldr	r0, [r7, #40]	; 0x28
 80031e4:	f000 f838 	bl	8003258 <prvWriteMessageToBuffer>
 80031e8:	6238      	str	r0, [r7, #32]
 80031ea:	6a3b      	ldr	r3, [r7, #32]
 80031ec:	2b00      	cmp	r3, #0
 80031ee:	d02e      	beq.n	800324e <xStreamBufferSendFromISR+0xa6>
 80031f0:	6ab8      	ldr	r0, [r7, #40]	; 0x28
 80031f2:	f000 fac0 	bl	8003776 <prvBytesInBuffer>
 80031f6:	4602      	mov	r2, r0
 80031f8:	6abb      	ldr	r3, [r7, #40]	; 0x28
 80031fa:	68db      	ldr	r3, [r3, #12]
 80031fc:	429a      	cmp	r2, r3
 80031fe:	d326      	bcc.n	800324e <xStreamBufferSendFromISR+0xa6>
 8003200:	f3ef 8211 	mrs	r2, BASEPRI
 8003204:	f04f 0350 	mov.w	r3, #80	; 0x50
 8003208:	f383 8811 	msr	BASEPRI, r3
 800320c:	f3bf 8f6f 	isb	sy
 8003210:	f3bf 8f4f 	dsb	sy
 8003214:	61ba      	str	r2, [r7, #24]
 8003216:	617b      	str	r3, [r7, #20]
 8003218:	69bb      	ldr	r3, [r7, #24]
 800321a:	61fb      	str	r3, [r7, #28]
 800321c:	6abb      	ldr	r3, [r7, #40]	; 0x28
 800321e:	691b      	ldr	r3, [r3, #16]
 8003220:	2b00      	cmp	r3, #0
 8003222:	d00e      	beq.n	8003242 <xStreamBufferSendFromISR+0x9a>
 8003224:	6abb      	ldr	r3, [r7, #40]	; 0x28
 8003226:	6918      	ldr	r0, [r3, #16]
 8003228:	6abb      	ldr	r3, [r7, #40]	; 0x28
 800322a:	6a19      	ldr	r1, [r3, #32]
 800322c:	683b      	ldr	r3, [r7, #0]
 800322e:	9301      	str	r3, [sp, #4]
 8003230:	2300      	movs	r3, #0
 8003232:	9300      	str	r3, [sp, #0]
 8003234:	2300      	movs	r3, #0
 8003236:	2200      	movs	r2, #0
 8003238:	f7fe f9de 	bl	80015f8 <xTaskGenericNotifyFromISR>
 800323c:	6abb      	ldr	r3, [r7, #40]	; 0x28
 800323e:	2200      	movs	r2, #0
 8003240:	611a      	str	r2, [r3, #16]
 8003242:	69fb      	ldr	r3, [r7, #28]
 8003244:	613b      	str	r3, [r7, #16]
 8003246:	693b      	ldr	r3, [r7, #16]
 8003248:	f383 8811 	msr	BASEPRI, r3
 800324c:	bf00      	nop
 800324e:	6a3b      	ldr	r3, [r7, #32]
 8003250:	4618      	mov	r0, r3
 8003252:	3730      	adds	r7, #48	; 0x30
 8003254:	46bd      	mov	sp, r7
 8003256:	bd80      	pop	{r7, pc}

08003258 <prvWriteMessageToBuffer>:
 8003258:	b580      	push	{r7, lr}
 800325a:	b086      	sub	sp, #24
 800325c:	af00      	add	r7, sp, #0
 800325e:	60f8      	str	r0, [r7, #12]
 8003260:	60b9      	str	r1, [r7, #8]
 8003262:	607a      	str	r2, [r7, #4]
 8003264:	603b      	str	r3, [r7, #0]
 8003266:	68fb      	ldr	r3, [r7, #12]
 8003268:	685b      	ldr	r3, [r3, #4]
 800326a:	617b      	str	r3, [r7, #20]
 800326c:	68fb      	ldr	r3, [r7, #12]
 800326e:	7f1b      	ldrb	r3, [r3, #28]
 8003270:	f003 0301 	and.w	r3, r3, #1
 8003274:	2b00      	cmp	r3, #0
 8003276:	d011      	beq.n	800329c <prvWriteMessageToBuffer+0x44>
 8003278:	687b      	ldr	r3, [r7, #4]
 800327a:	613b      	str	r3, [r7, #16]
 800327c:	683a      	ldr	r2, [r7, #0]
 800327e:	6a3b      	ldr	r3, [r7, #32]
 8003280:	429a      	cmp	r2, r3
 8003282:	d308      	bcc.n	8003296 <prvWriteMessageToBuffer+0x3e>
 8003284:	f107 0110 	add.w	r1, r7, #16
 8003288:	697b      	ldr	r3, [r7, #20]
 800328a:	2204      	movs	r2, #4
 800328c:	68f8      	ldr	r0, [r7, #12]
 800328e:	f000 f9fc 	bl	800368a <prvWriteBytesToBuffer>
 8003292:	6178      	str	r0, [r7, #20]
 8003294:	e008      	b.n	80032a8 <prvWriteMessageToBuffer+0x50>
 8003296:	2300      	movs	r3, #0
 8003298:	607b      	str	r3, [r7, #4]
 800329a:	e005      	b.n	80032a8 <prvWriteMessageToBuffer+0x50>
 800329c:	687a      	ldr	r2, [r7, #4]
 800329e:	683b      	ldr	r3, [r7, #0]
 80032a0:	4293      	cmp	r3, r2
 80032a2:	bf28      	it	cs
 80032a4:	4613      	movcs	r3, r2
 80032a6:	607b      	str	r3, [r7, #4]
 80032a8:	687b      	ldr	r3, [r7, #4]
 80032aa:	2b00      	cmp	r3, #0
 80032ac:	d008      	beq.n	80032c0 <prvWriteMessageToBuffer+0x68>
 80032ae:	697b      	ldr	r3, [r7, #20]
 80032b0:	687a      	ldr	r2, [r7, #4]
 80032b2:	68b9      	ldr	r1, [r7, #8]
 80032b4:	68f8      	ldr	r0, [r7, #12]
 80032b6:	f000 f9e8 	bl	800368a <prvWriteBytesToBuffer>
 80032ba:	4602      	mov	r2, r0
 80032bc:	68fb      	ldr	r3, [r7, #12]
 80032be:	605a      	str	r2, [r3, #4]
 80032c0:	687b      	ldr	r3, [r7, #4]
 80032c2:	4618      	mov	r0, r3
 80032c4:	3718      	adds	r7, #24
 80032c6:	46bd      	mov	sp, r7
 80032c8:	bd80      	pop	{r7, pc}

080032ca <xStreamBufferReceive>:
 80032ca:	b580      	push	{r7, lr}
 80032cc:	b08a      	sub	sp, #40	; 0x28
 80032ce:	af02      	add	r7, sp, #8
 80032d0:	60f8      	str	r0, [r7, #12]
 80032d2:	60b9      	str	r1, [r7, #8]
 80032d4:	607a      	str	r2, [r7, #4]
 80032d6:	603b      	str	r3, [r7, #0]
 80032d8:	68fb      	ldr	r3, [r7, #12]
 80032da:	613b      	str	r3, [r7, #16]
 80032dc:	2300      	movs	r3, #0
 80032de:	61fb      	str	r3, [r7, #28]
 80032e0:	693b      	ldr	r3, [r7, #16]
 80032e2:	7f1b      	ldrb	r3, [r3, #28]
 80032e4:	f003 0301 	and.w	r3, r3, #1
 80032e8:	2b00      	cmp	r3, #0
 80032ea:	d002      	beq.n	80032f2 <xStreamBufferReceive+0x28>
 80032ec:	2304      	movs	r3, #4
 80032ee:	617b      	str	r3, [r7, #20]
 80032f0:	e00b      	b.n	800330a <xStreamBufferReceive+0x40>
 80032f2:	693b      	ldr	r3, [r7, #16]
 80032f4:	7f1b      	ldrb	r3, [r3, #28]
 80032f6:	f003 0304 	and.w	r3, r3, #4
 80032fa:	2b00      	cmp	r3, #0
 80032fc:	d003      	beq.n	8003306 <xStreamBufferReceive+0x3c>
 80032fe:	693b      	ldr	r3, [r7, #16]
 8003300:	68db      	ldr	r3, [r3, #12]
 8003302:	617b      	str	r3, [r7, #20]
 8003304:	e001      	b.n	800330a <xStreamBufferReceive+0x40>
 8003306:	2300      	movs	r3, #0
 8003308:	617b      	str	r3, [r7, #20]
 800330a:	683b      	ldr	r3, [r7, #0]
 800330c:	2b00      	cmp	r3, #0
 800330e:	d02b      	beq.n	8003368 <xStreamBufferReceive+0x9e>
 8003310:	f000 fdc1 	bl	8003e96 <vPortEnterCritical>
 8003314:	6938      	ldr	r0, [r7, #16]
 8003316:	f000 fa2e 	bl	8003776 <prvBytesInBuffer>
 800331a:	61b8      	str	r0, [r7, #24]
 800331c:	69ba      	ldr	r2, [r7, #24]
 800331e:	697b      	ldr	r3, [r7, #20]
 8003320:	429a      	cmp	r2, r3
 8003322:	d80a      	bhi.n	800333a <xStreamBufferReceive+0x70>
 8003324:	693b      	ldr	r3, [r7, #16]
 8003326:	6a1b      	ldr	r3, [r3, #32]
 8003328:	4619      	mov	r1, r3
 800332a:	2000      	movs	r0, #0
 800332c:	f7fe fb68 	bl	8001a00 <xTaskGenericNotifyStateClear>
 8003330:	f7fd ff2e 	bl	8001190 <xTaskGetCurrentTaskHandle>
 8003334:	4602      	mov	r2, r0
 8003336:	693b      	ldr	r3, [r7, #16]
 8003338:	611a      	str	r2, [r3, #16]
 800333a:	f000 fdc7 	bl	8003ecc <vPortExitCritical>
 800333e:	69ba      	ldr	r2, [r7, #24]
 8003340:	697b      	ldr	r3, [r7, #20]
 8003342:	429a      	cmp	r2, r3
 8003344:	d814      	bhi.n	8003370 <xStreamBufferReceive+0xa6>
 8003346:	693b      	ldr	r3, [r7, #16]
 8003348:	6a18      	ldr	r0, [r3, #32]
 800334a:	683b      	ldr	r3, [r7, #0]
 800334c:	9300      	str	r3, [sp, #0]
 800334e:	2300      	movs	r3, #0
 8003350:	2200      	movs	r2, #0
 8003352:	2100      	movs	r1, #0
 8003354:	f7fd ffd4 	bl	8001300 <xTaskGenericNotifyWait>
 8003358:	693b      	ldr	r3, [r7, #16]
 800335a:	2200      	movs	r2, #0
 800335c:	611a      	str	r2, [r3, #16]
 800335e:	6938      	ldr	r0, [r7, #16]
 8003360:	f000 fa09 	bl	8003776 <prvBytesInBuffer>
 8003364:	61b8      	str	r0, [r7, #24]
 8003366:	e003      	b.n	8003370 <xStreamBufferReceive+0xa6>
 8003368:	6938      	ldr	r0, [r7, #16]
 800336a:	f000 fa04 	bl	8003776 <prvBytesInBuffer>
 800336e:	61b8      	str	r0, [r7, #24]
 8003370:	69ba      	ldr	r2, [r7, #24]
 8003372:	697b      	ldr	r3, [r7, #20]
 8003374:	429a      	cmp	r2, r3
 8003376:	d91e      	bls.n	80033b6 <xStreamBufferReceive+0xec>
 8003378:	69bb      	ldr	r3, [r7, #24]
 800337a:	687a      	ldr	r2, [r7, #4]
 800337c:	68b9      	ldr	r1, [r7, #8]
 800337e:	6938      	ldr	r0, [r7, #16]
 8003380:	f000 f89a 	bl	80034b8 <prvReadMessageFromBuffer>
 8003384:	61f8      	str	r0, [r7, #28]
 8003386:	69fb      	ldr	r3, [r7, #28]
 8003388:	2b00      	cmp	r3, #0
 800338a:	d014      	beq.n	80033b6 <xStreamBufferReceive+0xec>
 800338c:	f7fd f974 	bl	8000678 <vTaskSuspendAll>
 8003390:	68fb      	ldr	r3, [r7, #12]
 8003392:	695b      	ldr	r3, [r3, #20]
 8003394:	2b00      	cmp	r3, #0
 8003396:	d00c      	beq.n	80033b2 <xStreamBufferReceive+0xe8>
 8003398:	68fb      	ldr	r3, [r7, #12]
 800339a:	6958      	ldr	r0, [r3, #20]
 800339c:	68fb      	ldr	r3, [r7, #12]
 800339e:	6a19      	ldr	r1, [r3, #32]
 80033a0:	2300      	movs	r3, #0
 80033a2:	9300      	str	r3, [sp, #0]
 80033a4:	2300      	movs	r3, #0
 80033a6:	2200      	movs	r2, #0
 80033a8:	f7fe f83c 	bl	8001424 <xTaskGenericNotify>
 80033ac:	68fb      	ldr	r3, [r7, #12]
 80033ae:	2200      	movs	r2, #0
 80033b0:	615a      	str	r2, [r3, #20]
 80033b2:	f7fd f96f 	bl	8000694 <xTaskResumeAll>
 80033b6:	69fb      	ldr	r3, [r7, #28]
 80033b8:	4618      	mov	r0, r3
 80033ba:	3720      	adds	r7, #32
 80033bc:	46bd      	mov	sp, r7
 80033be:	bd80      	pop	{r7, pc}

080033c0 <xStreamBufferNextMessageLengthBytes>:
 80033c0:	b580      	push	{r7, lr}
 80033c2:	b086      	sub	sp, #24
 80033c4:	af00      	add	r7, sp, #0
 80033c6:	6078      	str	r0, [r7, #4]
 80033c8:	687b      	ldr	r3, [r7, #4]
 80033ca:	613b      	str	r3, [r7, #16]
 80033cc:	693b      	ldr	r3, [r7, #16]
 80033ce:	7f1b      	ldrb	r3, [r3, #28]
 80033d0:	f003 0301 	and.w	r3, r3, #1
 80033d4:	2b00      	cmp	r3, #0
 80033d6:	d014      	beq.n	8003402 <xStreamBufferNextMessageLengthBytes+0x42>
 80033d8:	6938      	ldr	r0, [r7, #16]
 80033da:	f000 f9cc 	bl	8003776 <prvBytesInBuffer>
 80033de:	60f8      	str	r0, [r7, #12]
 80033e0:	68fb      	ldr	r3, [r7, #12]
 80033e2:	2b04      	cmp	r3, #4
 80033e4:	d90a      	bls.n	80033fc <xStreamBufferNextMessageLengthBytes+0x3c>
 80033e6:	693b      	ldr	r3, [r7, #16]
 80033e8:	681b      	ldr	r3, [r3, #0]
 80033ea:	f107 0108 	add.w	r1, r7, #8
 80033ee:	2204      	movs	r2, #4
 80033f0:	6938      	ldr	r0, [r7, #16]
 80033f2:	f000 f985 	bl	8003700 <prvReadBytesFromBuffer>
 80033f6:	68bb      	ldr	r3, [r7, #8]
 80033f8:	617b      	str	r3, [r7, #20]
 80033fa:	e004      	b.n	8003406 <xStreamBufferNextMessageLengthBytes+0x46>
 80033fc:	2300      	movs	r3, #0
 80033fe:	617b      	str	r3, [r7, #20]
 8003400:	e001      	b.n	8003406 <xStreamBufferNextMessageLengthBytes+0x46>
 8003402:	2300      	movs	r3, #0
 8003404:	617b      	str	r3, [r7, #20]
 8003406:	697b      	ldr	r3, [r7, #20]
 8003408:	4618      	mov	r0, r3
 800340a:	3718      	adds	r7, #24
 800340c:	46bd      	mov	sp, r7
 800340e:	bd80      	pop	{r7, pc}

08003410 <xStreamBufferReceiveFromISR>:
 8003410:	b580      	push	{r7, lr}
 8003412:	b08e      	sub	sp, #56	; 0x38
 8003414:	af02      	add	r7, sp, #8
 8003416:	60f8      	str	r0, [r7, #12]
 8003418:	60b9      	str	r1, [r7, #8]
 800341a:	607a      	str	r2, [r7, #4]
 800341c:	603b      	str	r3, [r7, #0]
 800341e:	68fb      	ldr	r3, [r7, #12]
 8003420:	627b      	str	r3, [r7, #36]	; 0x24
 8003422:	2300      	movs	r3, #0
 8003424:	62fb      	str	r3, [r7, #44]	; 0x2c
 8003426:	6a7b      	ldr	r3, [r7, #36]	; 0x24
 8003428:	7f1b      	ldrb	r3, [r3, #28]
 800342a:	f003 0301 	and.w	r3, r3, #1
 800342e:	2b00      	cmp	r3, #0
 8003430:	d002      	beq.n	8003438 <xStreamBufferReceiveFromISR+0x28>
 8003432:	2304      	movs	r3, #4
